
StrobeMain.elf:     file format elf32-littlearm

Sections:
Idx Name          Size      VMA       LMA       File off  Algn
  0 .isr_vector   000001d8  08000000  08000000  00001000  2**0
                  CONTENTS, ALLOC, LOAD, READONLY, DATA
  1 .text         000036e0  080001d8  080001d8  000011d8  2**3
                  CONTENTS, ALLOC, LOAD, READONLY, CODE
  2 .rodata       0000006c  080038b8  080038b8  000048b8  2**2
                  CONTENTS, ALLOC, LOAD, READONLY, DATA
  3 .ARM.extab    00000000  08003924  08003924  0000502c  2**0
                  CONTENTS, READONLY
  4 .ARM          00000008  08003924  08003924  00004924  2**2
                  CONTENTS, ALLOC, LOAD, READONLY, DATA
  5 .preinit_array 00000000  0800392c  0800392c  0000502c  2**0
                  CONTENTS, ALLOC, LOAD, DATA
  6 .init_array   00000004  0800392c  0800392c  0000492c  2**2
                  CONTENTS, ALLOC, LOAD, READONLY, DATA
  7 .fini_array   00000004  08003930  08003930  00004930  2**2
                  CONTENTS, ALLOC, LOAD, READONLY, DATA
  8 .data         0000002c  20000000  08003934  00005000  2**2
                  CONTENTS, ALLOC, LOAD, DATA
  9 .bss          0000003c  2000002c  08003960  0000502c  2**2
                  ALLOC
 10 ._user_heap_stack 00000600  20000068  08003960  00005068  2**0
                  ALLOC
 11 .ARM.attributes 00000030  00000000  00000000  0000502c  2**0
                  CONTENTS, READONLY
 12 .debug_info   00008416  00000000  00000000  0000505c  2**0
                  CONTENTS, READONLY, DEBUGGING, OCTETS
 13 .debug_abbrev 0000158c  00000000  00000000  0000d472  2**0
                  CONTENTS, READONLY, DEBUGGING, OCTETS
 14 .debug_aranges 00000a58  00000000  00000000  0000ea00  2**3
                  CONTENTS, READONLY, DEBUGGING, OCTETS
 15 .debug_rnglists 000007ba  00000000  00000000  0000f458  2**0
                  CONTENTS, READONLY, DEBUGGING, OCTETS
 16 .debug_macro  0001ac2a  00000000  00000000  0000fc12  2**0
                  CONTENTS, READONLY, DEBUGGING, OCTETS
 17 .debug_line   00006ee6  00000000  00000000  0002a83c  2**0
                  CONTENTS, READONLY, DEBUGGING, OCTETS
 18 .debug_str    00098f38  00000000  00000000  00031722  2**0
                  CONTENTS, READONLY, DEBUGGING, OCTETS
 19 .comment      00000043  00000000  00000000  000ca65a  2**0
                  CONTENTS, READONLY
 20 .debug_frame  00002c68  00000000  00000000  000ca6a0  2**2
                  CONTENTS, READONLY, DEBUGGING, OCTETS
 21 .debug_line_str 00000067  00000000  00000000  000cd308  2**0
                  CONTENTS, READONLY, DEBUGGING, OCTETS

Disassembly of section .text:

080001d8 <__do_global_dtors_aux>:
 80001d8:	b510      	push	{r4, lr}
 80001da:	4c05      	ldr	r4, [pc, #20]	@ (80001f0 <__do_global_dtors_aux+0x18>)
 80001dc:	7823      	ldrb	r3, [r4, #0]
 80001de:	b933      	cbnz	r3, 80001ee <__do_global_dtors_aux+0x16>
 80001e0:	4b04      	ldr	r3, [pc, #16]	@ (80001f4 <__do_global_dtors_aux+0x1c>)
 80001e2:	b113      	cbz	r3, 80001ea <__do_global_dtors_aux+0x12>
 80001e4:	4804      	ldr	r0, [pc, #16]	@ (80001f8 <__do_global_dtors_aux+0x20>)
 80001e6:	f3af 8000 	nop.w
 80001ea:	2301      	movs	r3, #1
 80001ec:	7023      	strb	r3, [r4, #0]
 80001ee:	bd10      	pop	{r4, pc}
 80001f0:	2000002c 	.word	0x2000002c
 80001f4:	00000000 	.word	0x00000000
 80001f8:	080038a0 	.word	0x080038a0

080001fc <frame_dummy>:
 80001fc:	b508      	push	{r3, lr}
 80001fe:	4b03      	ldr	r3, [pc, #12]	@ (800020c <frame_dummy+0x10>)
 8000200:	b11b      	cbz	r3, 800020a <frame_dummy+0xe>
 8000202:	4903      	ldr	r1, [pc, #12]	@ (8000210 <frame_dummy+0x14>)
 8000204:	4803      	ldr	r0, [pc, #12]	@ (8000214 <frame_dummy+0x18>)
 8000206:	f3af 8000 	nop.w
 800020a:	bd08      	pop	{r3, pc}
 800020c:	00000000 	.word	0x00000000
 8000210:	20000030 	.word	0x20000030
 8000214:	080038a0 	.word	0x080038a0

08000218 <__aeabi_ldivmod>:
 8000218:	b97b      	cbnz	r3, 800023a <__aeabi_ldivmod+0x22>
 800021a:	b972      	cbnz	r2, 800023a <__aeabi_ldivmod+0x22>
 800021c:	2900      	cmp	r1, #0
 800021e:	bfbe      	ittt	lt
 8000220:	2000      	movlt	r0, #0
 8000222:	f04f 4100 	movlt.w	r1, #2147483648	@ 0x80000000
 8000226:	e006      	blt.n	8000236 <__aeabi_ldivmod+0x1e>
 8000228:	bf08      	it	eq
 800022a:	2800      	cmpeq	r0, #0
 800022c:	bf1c      	itt	ne
 800022e:	f06f 4100 	mvnne.w	r1, #2147483648	@ 0x80000000
 8000232:	f04f 30ff 	movne.w	r0, #4294967295
 8000236:	f000 b9bb 	b.w	80005b0 <__aeabi_idiv0>
 800023a:	f1ad 0c08 	sub.w	ip, sp, #8
 800023e:	e96d ce04 	strd	ip, lr, [sp, #-16]!
 8000242:	2900      	cmp	r1, #0
 8000244:	db09      	blt.n	800025a <__aeabi_ldivmod+0x42>
 8000246:	2b00      	cmp	r3, #0
 8000248:	db1a      	blt.n	8000280 <__aeabi_ldivmod+0x68>
 800024a:	f000 f835 	bl	80002b8 <__udivmoddi4>
 800024e:	f8dd e004 	ldr.w	lr, [sp, #4]
 8000252:	e9dd 2302 	ldrd	r2, r3, [sp, #8]
 8000256:	b004      	add	sp, #16
 8000258:	4770      	bx	lr
 800025a:	4240      	negs	r0, r0
 800025c:	eb61 0141 	sbc.w	r1, r1, r1, lsl #1
 8000260:	2b00      	cmp	r3, #0
 8000262:	db1b      	blt.n	800029c <__aeabi_ldivmod+0x84>
 8000264:	f000 f828 	bl	80002b8 <__udivmoddi4>
 8000268:	f8dd e004 	ldr.w	lr, [sp, #4]
 800026c:	e9dd 2302 	ldrd	r2, r3, [sp, #8]
 8000270:	b004      	add	sp, #16
 8000272:	4240      	negs	r0, r0
 8000274:	eb61 0141 	sbc.w	r1, r1, r1, lsl #1
 8000278:	4252      	negs	r2, r2
 800027a:	eb63 0343 	sbc.w	r3, r3, r3, lsl #1
 800027e:	4770      	bx	lr
 8000280:	4252      	negs	r2, r2
 8000282:	eb63 0343 	sbc.w	r3, r3, r3, lsl #1
 8000286:	f000 f817 	bl	80002b8 <__udivmoddi4>
 800028a:	f8dd e004 	ldr.w	lr, [sp, #4]
 800028e:	e9dd 2302 	ldrd	r2, r3, [sp, #8]
 8000292:	b004      	add	sp, #16
 8000294:	4240      	negs	r0, r0
 8000296:	eb61 0141 	sbc.w	r1, r1, r1, lsl #1
 800029a:	4770      	bx	lr
 800029c:	4252      	negs	r2, r2
 800029e:	eb63 0343 	sbc.w	r3, r3, r3, lsl #1
 80002a2:	f000 f809 	bl	80002b8 <__udivmoddi4>
 80002a6:	f8dd e004 	ldr.w	lr, [sp, #4]
 80002aa:	e9dd 2302 	ldrd	r2, r3, [sp, #8]
 80002ae:	b004      	add	sp, #16
 80002b0:	4252      	negs	r2, r2
 80002b2:	eb63 0343 	sbc.w	r3, r3, r3, lsl #1
 80002b6:	4770      	bx	lr

080002b8 <__udivmoddi4>:
 80002b8:	e92d 47f0 	stmdb	sp!, {r4, r5, r6, r7, r8, r9, sl, lr}
 80002bc:	9d08      	ldr	r5, [sp, #32]
 80002be:	468e      	mov	lr, r1
 80002c0:	4604      	mov	r4, r0
 80002c2:	4688      	mov	r8, r1
 80002c4:	2b00      	cmp	r3, #0
 80002c6:	d14a      	bne.n	800035e <__udivmoddi4+0xa6>
 80002c8:	428a      	cmp	r2, r1
 80002ca:	4617      	mov	r7, r2
 80002cc:	d962      	bls.n	8000394 <__udivmoddi4+0xdc>
 80002ce:	fab2 f682 	clz	r6, r2
 80002d2:	b14e      	cbz	r6, 80002e8 <__udivmoddi4+0x30>
 80002d4:	f1c6 0320 	rsb	r3, r6, #32
 80002d8:	fa01 f806 	lsl.w	r8, r1, r6
 80002dc:	fa20 f303 	lsr.w	r3, r0, r3
 80002e0:	40b7      	lsls	r7, r6
 80002e2:	ea43 0808 	orr.w	r8, r3, r8
 80002e6:	40b4      	lsls	r4, r6
 80002e8:	ea4f 4e17 	mov.w	lr, r7, lsr #16
 80002ec:	fa1f fc87 	uxth.w	ip, r7
 80002f0:	fbb8 f1fe 	udiv	r1, r8, lr
 80002f4:	0c23      	lsrs	r3, r4, #16
 80002f6:	fb0e 8811 	mls	r8, lr, r1, r8
 80002fa:	ea43 4308 	orr.w	r3, r3, r8, lsl #16
 80002fe:	fb01 f20c 	mul.w	r2, r1, ip
 8000302:	429a      	cmp	r2, r3
 8000304:	d909      	bls.n	800031a <__udivmoddi4+0x62>
 8000306:	18fb      	adds	r3, r7, r3
 8000308:	f101 30ff 	add.w	r0, r1, #4294967295
 800030c:	f080 80ea 	bcs.w	80004e4 <__udivmoddi4+0x22c>
 8000310:	429a      	cmp	r2, r3
 8000312:	f240 80e7 	bls.w	80004e4 <__udivmoddi4+0x22c>
 8000316:	3902      	subs	r1, #2
 8000318:	443b      	add	r3, r7
 800031a:	1a9a      	subs	r2, r3, r2
 800031c:	b2a3      	uxth	r3, r4
 800031e:	fbb2 f0fe 	udiv	r0, r2, lr
 8000322:	fb0e 2210 	mls	r2, lr, r0, r2
 8000326:	ea43 4302 	orr.w	r3, r3, r2, lsl #16
 800032a:	fb00 fc0c 	mul.w	ip, r0, ip
 800032e:	459c      	cmp	ip, r3
 8000330:	d909      	bls.n	8000346 <__udivmoddi4+0x8e>
 8000332:	18fb      	adds	r3, r7, r3
 8000334:	f100 32ff 	add.w	r2, r0, #4294967295
 8000338:	f080 80d6 	bcs.w	80004e8 <__udivmoddi4+0x230>
 800033c:	459c      	cmp	ip, r3
 800033e:	f240 80d3 	bls.w	80004e8 <__udivmoddi4+0x230>
 8000342:	443b      	add	r3, r7
 8000344:	3802      	subs	r0, #2
 8000346:	ea40 4001 	orr.w	r0, r0, r1, lsl #16
 800034a:	eba3 030c 	sub.w	r3, r3, ip
 800034e:	2100      	movs	r1, #0
 8000350:	b11d      	cbz	r5, 800035a <__udivmoddi4+0xa2>
 8000352:	40f3      	lsrs	r3, r6
 8000354:	2200      	movs	r2, #0
 8000356:	e9c5 3200 	strd	r3, r2, [r5]
 800035a:	e8bd 87f0 	ldmia.w	sp!, {r4, r5, r6, r7, r8, r9, sl, pc}
 800035e:	428b      	cmp	r3, r1
 8000360:	d905      	bls.n	800036e <__udivmoddi4+0xb6>
 8000362:	b10d      	cbz	r5, 8000368 <__udivmoddi4+0xb0>
 8000364:	e9c5 0100 	strd	r0, r1, [r5]
 8000368:	2100      	movs	r1, #0
 800036a:	4608      	mov	r0, r1
 800036c:	e7f5      	b.n	800035a <__udivmoddi4+0xa2>
 800036e:	fab3 f183 	clz	r1, r3
 8000372:	2900      	cmp	r1, #0
 8000374:	d146      	bne.n	8000404 <__udivmoddi4+0x14c>
 8000376:	4573      	cmp	r3, lr
 8000378:	d302      	bcc.n	8000380 <__udivmoddi4+0xc8>
 800037a:	4282      	cmp	r2, r0
 800037c:	f200 8105 	bhi.w	800058a <__udivmoddi4+0x2d2>
 8000380:	1a84      	subs	r4, r0, r2
 8000382:	eb6e 0203 	sbc.w	r2, lr, r3
 8000386:	2001      	movs	r0, #1
 8000388:	4690      	mov	r8, r2
 800038a:	2d00      	cmp	r5, #0
 800038c:	d0e5      	beq.n	800035a <__udivmoddi4+0xa2>
 800038e:	e9c5 4800 	strd	r4, r8, [r5]
 8000392:	e7e2      	b.n	800035a <__udivmoddi4+0xa2>
 8000394:	2a00      	cmp	r2, #0
 8000396:	f000 8090 	beq.w	80004ba <__udivmoddi4+0x202>
 800039a:	fab2 f682 	clz	r6, r2
 800039e:	2e00      	cmp	r6, #0
 80003a0:	f040 80a4 	bne.w	80004ec <__udivmoddi4+0x234>
 80003a4:	1a8a      	subs	r2, r1, r2
 80003a6:	0c03      	lsrs	r3, r0, #16
 80003a8:	ea4f 4e17 	mov.w	lr, r7, lsr #16
 80003ac:	b280      	uxth	r0, r0
 80003ae:	b2bc      	uxth	r4, r7
 80003b0:	2101      	movs	r1, #1
 80003b2:	fbb2 fcfe 	udiv	ip, r2, lr
 80003b6:	fb0e 221c 	mls	r2, lr, ip, r2
 80003ba:	ea43 4302 	orr.w	r3, r3, r2, lsl #16
 80003be:	fb04 f20c 	mul.w	r2, r4, ip
 80003c2:	429a      	cmp	r2, r3
 80003c4:	d907      	bls.n	80003d6 <__udivmoddi4+0x11e>
 80003c6:	18fb      	adds	r3, r7, r3
 80003c8:	f10c 38ff 	add.w	r8, ip, #4294967295
 80003cc:	d202      	bcs.n	80003d4 <__udivmoddi4+0x11c>
 80003ce:	429a      	cmp	r2, r3
 80003d0:	f200 80e0 	bhi.w	8000594 <__udivmoddi4+0x2dc>
 80003d4:	46c4      	mov	ip, r8
 80003d6:	1a9b      	subs	r3, r3, r2
 80003d8:	fbb3 f2fe 	udiv	r2, r3, lr
 80003dc:	fb0e 3312 	mls	r3, lr, r2, r3
 80003e0:	ea40 4303 	orr.w	r3, r0, r3, lsl #16
 80003e4:	fb02 f404 	mul.w	r4, r2, r4
 80003e8:	429c      	cmp	r4, r3
 80003ea:	d907      	bls.n	80003fc <__udivmoddi4+0x144>
 80003ec:	18fb      	adds	r3, r7, r3
 80003ee:	f102 30ff 	add.w	r0, r2, #4294967295
 80003f2:	d202      	bcs.n	80003fa <__udivmoddi4+0x142>
 80003f4:	429c      	cmp	r4, r3
 80003f6:	f200 80ca 	bhi.w	800058e <__udivmoddi4+0x2d6>
 80003fa:	4602      	mov	r2, r0
 80003fc:	1b1b      	subs	r3, r3, r4
 80003fe:	ea42 400c 	orr.w	r0, r2, ip, lsl #16
 8000402:	e7a5      	b.n	8000350 <__udivmoddi4+0x98>
 8000404:	f1c1 0620 	rsb	r6, r1, #32
 8000408:	408b      	lsls	r3, r1
 800040a:	fa22 f706 	lsr.w	r7, r2, r6
 800040e:	431f      	orrs	r7, r3
 8000410:	fa0e f401 	lsl.w	r4, lr, r1
 8000414:	fa20 f306 	lsr.w	r3, r0, r6
 8000418:	fa2e fe06 	lsr.w	lr, lr, r6
 800041c:	ea4f 4917 	mov.w	r9, r7, lsr #16
 8000420:	4323      	orrs	r3, r4
 8000422:	fa00 f801 	lsl.w	r8, r0, r1
 8000426:	fa1f fc87 	uxth.w	ip, r7
 800042a:	fbbe f0f9 	udiv	r0, lr, r9
 800042e:	0c1c      	lsrs	r4, r3, #16
 8000430:	fb09 ee10 	mls	lr, r9, r0, lr
 8000434:	ea44 440e 	orr.w	r4, r4, lr, lsl #16
 8000438:	fb00 fe0c 	mul.w	lr, r0, ip
 800043c:	45a6      	cmp	lr, r4
 800043e:	fa02 f201 	lsl.w	r2, r2, r1
 8000442:	d909      	bls.n	8000458 <__udivmoddi4+0x1a0>
 8000444:	193c      	adds	r4, r7, r4
 8000446:	f100 3aff 	add.w	sl, r0, #4294967295
 800044a:	f080 809c 	bcs.w	8000586 <__udivmoddi4+0x2ce>
 800044e:	45a6      	cmp	lr, r4
 8000450:	f240 8099 	bls.w	8000586 <__udivmoddi4+0x2ce>
 8000454:	3802      	subs	r0, #2
 8000456:	443c      	add	r4, r7
 8000458:	eba4 040e 	sub.w	r4, r4, lr
 800045c:	fa1f fe83 	uxth.w	lr, r3
 8000460:	fbb4 f3f9 	udiv	r3, r4, r9
 8000464:	fb09 4413 	mls	r4, r9, r3, r4
 8000468:	ea4e 4404 	orr.w	r4, lr, r4, lsl #16
 800046c:	fb03 fc0c 	mul.w	ip, r3, ip
 8000470:	45a4      	cmp	ip, r4
 8000472:	d908      	bls.n	8000486 <__udivmoddi4+0x1ce>
 8000474:	193c      	adds	r4, r7, r4
 8000476:	f103 3eff 	add.w	lr, r3, #4294967295
 800047a:	f080 8082 	bcs.w	8000582 <__udivmoddi4+0x2ca>
 800047e:	45a4      	cmp	ip, r4
 8000480:	d97f      	bls.n	8000582 <__udivmoddi4+0x2ca>
 8000482:	3b02      	subs	r3, #2
 8000484:	443c      	add	r4, r7
 8000486:	ea43 4000 	orr.w	r0, r3, r0, lsl #16
 800048a:	eba4 040c 	sub.w	r4, r4, ip
 800048e:	fba0 ec02 	umull	lr, ip, r0, r2
 8000492:	4564      	cmp	r4, ip
 8000494:	4673      	mov	r3, lr
 8000496:	46e1      	mov	r9, ip
 8000498:	d362      	bcc.n	8000560 <__udivmoddi4+0x2a8>
 800049a:	d05f      	beq.n	800055c <__udivmoddi4+0x2a4>
 800049c:	b15d      	cbz	r5, 80004b6 <__udivmoddi4+0x1fe>
 800049e:	ebb8 0203 	subs.w	r2, r8, r3
 80004a2:	eb64 0409 	sbc.w	r4, r4, r9
 80004a6:	fa04 f606 	lsl.w	r6, r4, r6
 80004aa:	fa22 f301 	lsr.w	r3, r2, r1
 80004ae:	431e      	orrs	r6, r3
 80004b0:	40cc      	lsrs	r4, r1
 80004b2:	e9c5 6400 	strd	r6, r4, [r5]
 80004b6:	2100      	movs	r1, #0
 80004b8:	e74f      	b.n	800035a <__udivmoddi4+0xa2>
 80004ba:	fbb1 fcf2 	udiv	ip, r1, r2
 80004be:	0c01      	lsrs	r1, r0, #16
 80004c0:	ea41 410e 	orr.w	r1, r1, lr, lsl #16
 80004c4:	b280      	uxth	r0, r0
 80004c6:	ea40 4201 	orr.w	r2, r0, r1, lsl #16
 80004ca:	463b      	mov	r3, r7
 80004cc:	4638      	mov	r0, r7
 80004ce:	463c      	mov	r4, r7
 80004d0:	46b8      	mov	r8, r7
 80004d2:	46be      	mov	lr, r7
 80004d4:	2620      	movs	r6, #32
 80004d6:	fbb1 f1f7 	udiv	r1, r1, r7
 80004da:	eba2 0208 	sub.w	r2, r2, r8
 80004de:	ea41 410c 	orr.w	r1, r1, ip, lsl #16
 80004e2:	e766      	b.n	80003b2 <__udivmoddi4+0xfa>
 80004e4:	4601      	mov	r1, r0
 80004e6:	e718      	b.n	800031a <__udivmoddi4+0x62>
 80004e8:	4610      	mov	r0, r2
 80004ea:	e72c      	b.n	8000346 <__udivmoddi4+0x8e>
 80004ec:	f1c6 0220 	rsb	r2, r6, #32
 80004f0:	fa2e f302 	lsr.w	r3, lr, r2
 80004f4:	40b7      	lsls	r7, r6
 80004f6:	40b1      	lsls	r1, r6
 80004f8:	fa20 f202 	lsr.w	r2, r0, r2
 80004fc:	ea4f 4e17 	mov.w	lr, r7, lsr #16
 8000500:	430a      	orrs	r2, r1
 8000502:	fbb3 f8fe 	udiv	r8, r3, lr
 8000506:	b2bc      	uxth	r4, r7
 8000508:	fb0e 3318 	mls	r3, lr, r8, r3
 800050c:	0c11      	lsrs	r1, r2, #16
 800050e:	ea41 4103 	orr.w	r1, r1, r3, lsl #16
 8000512:	fb08 f904 	mul.w	r9, r8, r4
 8000516:	40b0      	lsls	r0, r6
 8000518:	4589      	cmp	r9, r1
 800051a:	ea4f 4310 	mov.w	r3, r0, lsr #16
 800051e:	b280      	uxth	r0, r0
 8000520:	d93e      	bls.n	80005a0 <__udivmoddi4+0x2e8>
 8000522:	1879      	adds	r1, r7, r1
 8000524:	f108 3cff 	add.w	ip, r8, #4294967295
 8000528:	d201      	bcs.n	800052e <__udivmoddi4+0x276>
 800052a:	4589      	cmp	r9, r1
 800052c:	d81f      	bhi.n	800056e <__udivmoddi4+0x2b6>
 800052e:	eba1 0109 	sub.w	r1, r1, r9
 8000532:	fbb1 f9fe 	udiv	r9, r1, lr
 8000536:	fb09 f804 	mul.w	r8, r9, r4
 800053a:	fb0e 1119 	mls	r1, lr, r9, r1
 800053e:	b292      	uxth	r2, r2
 8000540:	ea42 4201 	orr.w	r2, r2, r1, lsl #16
 8000544:	4542      	cmp	r2, r8
 8000546:	d229      	bcs.n	800059c <__udivmoddi4+0x2e4>
 8000548:	18ba      	adds	r2, r7, r2
 800054a:	f109 31ff 	add.w	r1, r9, #4294967295
 800054e:	d2c4      	bcs.n	80004da <__udivmoddi4+0x222>
 8000550:	4542      	cmp	r2, r8
 8000552:	d2c2      	bcs.n	80004da <__udivmoddi4+0x222>
 8000554:	f1a9 0102 	sub.w	r1, r9, #2
 8000558:	443a      	add	r2, r7
 800055a:	e7be      	b.n	80004da <__udivmoddi4+0x222>
 800055c:	45f0      	cmp	r8, lr
 800055e:	d29d      	bcs.n	800049c <__udivmoddi4+0x1e4>
 8000560:	ebbe 0302 	subs.w	r3, lr, r2
 8000564:	eb6c 0c07 	sbc.w	ip, ip, r7
 8000568:	3801      	subs	r0, #1
 800056a:	46e1      	mov	r9, ip
 800056c:	e796      	b.n	800049c <__udivmoddi4+0x1e4>
 800056e:	eba7 0909 	sub.w	r9, r7, r9
 8000572:	4449      	add	r1, r9
 8000574:	f1a8 0c02 	sub.w	ip, r8, #2
 8000578:	fbb1 f9fe 	udiv	r9, r1, lr
 800057c:	fb09 f804 	mul.w	r8, r9, r4
 8000580:	e7db      	b.n	800053a <__udivmoddi4+0x282>
 8000582:	4673      	mov	r3, lr
 8000584:	e77f      	b.n	8000486 <__udivmoddi4+0x1ce>
 8000586:	4650      	mov	r0, sl
 8000588:	e766      	b.n	8000458 <__udivmoddi4+0x1a0>
 800058a:	4608      	mov	r0, r1
 800058c:	e6fd      	b.n	800038a <__udivmoddi4+0xd2>
 800058e:	443b      	add	r3, r7
 8000590:	3a02      	subs	r2, #2
 8000592:	e733      	b.n	80003fc <__udivmoddi4+0x144>
 8000594:	f1ac 0c02 	sub.w	ip, ip, #2
 8000598:	443b      	add	r3, r7
 800059a:	e71c      	b.n	80003d6 <__udivmoddi4+0x11e>
 800059c:	4649      	mov	r1, r9
 800059e:	e79c      	b.n	80004da <__udivmoddi4+0x222>
 80005a0:	eba1 0109 	sub.w	r1, r1, r9
 80005a4:	46c4      	mov	ip, r8
 80005a6:	fbb1 f9fe 	udiv	r9, r1, lr
 80005aa:	fb09 f804 	mul.w	r8, r9, r4
 80005ae:	e7c4      	b.n	800053a <__udivmoddi4+0x282>

080005b0 <__aeabi_idiv0>:
 80005b0:	4770      	bx	lr
 80005b2:	bf00      	nop

080005b4 <__NVIC_SetPriorityGrouping>:
           In case of a conflict between priority grouping and available
           priority bits (__NVIC_PRIO_BITS), the smallest possible priority group is set.
  \param [in]      PriorityGroup  Priority grouping field.
 */
__STATIC_INLINE void __NVIC_SetPriorityGrouping(uint32_t PriorityGroup)
{
 80005b4:	b480      	push	{r7}
 80005b6:	b085      	sub	sp, #20
 80005b8:	af00      	add	r7, sp, #0
 80005ba:	6078      	str	r0, [r7, #4]
  uint32_t reg_value;
  uint32_t PriorityGroupTmp = (PriorityGroup & (uint32_t)0x07UL);             /* only values 0..7 are used          */
 80005bc:	687b      	ldr	r3, [r7, #4]
 80005be:	f003 0307 	and.w	r3, r3, #7
 80005c2:	60fb      	str	r3, [r7, #12]

  reg_value  =  SCB->AIRCR;                                                   /* read old register configuration    */
 80005c4:	4b0c      	ldr	r3, [pc, #48]	@ (80005f8 <__NVIC_SetPriorityGrouping+0x44>)
 80005c6:	68db      	ldr	r3, [r3, #12]
 80005c8:	60bb      	str	r3, [r7, #8]
  reg_value &= ~((uint32_t)(SCB_AIRCR_VECTKEY_Msk | SCB_AIRCR_PRIGROUP_Msk)); /* clear bits to change               */
 80005ca:	68ba      	ldr	r2, [r7, #8]
 80005cc:	f64f 03ff 	movw	r3, #63743	@ 0xf8ff
 80005d0:	4013      	ands	r3, r2
 80005d2:	60bb      	str	r3, [r7, #8]
  reg_value  =  (reg_value                                   |
                ((uint32_t)0x5FAUL << SCB_AIRCR_VECTKEY_Pos) |
                (PriorityGroupTmp << SCB_AIRCR_PRIGROUP_Pos)  );              /* Insert write key and priority group */
 80005d4:	68fb      	ldr	r3, [r7, #12]
 80005d6:	021a      	lsls	r2, r3, #8
                ((uint32_t)0x5FAUL << SCB_AIRCR_VECTKEY_Pos) |
 80005d8:	68bb      	ldr	r3, [r7, #8]
 80005da:	4313      	orrs	r3, r2
  reg_value  =  (reg_value                                   |
 80005dc:	f043 63bf 	orr.w	r3, r3, #100139008	@ 0x5f80000
 80005e0:	f443 3300 	orr.w	r3, r3, #131072	@ 0x20000
 80005e4:	60bb      	str	r3, [r7, #8]
  SCB->AIRCR =  reg_value;
 80005e6:	4a04      	ldr	r2, [pc, #16]	@ (80005f8 <__NVIC_SetPriorityGrouping+0x44>)
 80005e8:	68bb      	ldr	r3, [r7, #8]
 80005ea:	60d3      	str	r3, [r2, #12]
}
 80005ec:	bf00      	nop
 80005ee:	3714      	adds	r7, #20
 80005f0:	46bd      	mov	sp, r7
 80005f2:	f85d 7b04 	ldr.w	r7, [sp], #4
 80005f6:	4770      	bx	lr
 80005f8:	e000ed00 	.word	0xe000ed00

080005fc <__NVIC_GetPriorityGrouping>:
  \brief   Get Priority Grouping
  \details Reads the priority grouping field from the NVIC Interrupt Controller.
  \return                Priority grouping field (SCB->AIRCR [10:8] PRIGROUP field).
 */
__STATIC_INLINE uint32_t __NVIC_GetPriorityGrouping(void)
{
 80005fc:	b480      	push	{r7}
 80005fe:	af00      	add	r7, sp, #0
  return ((uint32_t)((SCB->AIRCR & SCB_AIRCR_PRIGROUP_Msk) >> SCB_AIRCR_PRIGROUP_Pos));
 8000600:	4b04      	ldr	r3, [pc, #16]	@ (8000614 <__NVIC_GetPriorityGrouping+0x18>)
 8000602:	68db      	ldr	r3, [r3, #12]
 8000604:	0a1b      	lsrs	r3, r3, #8
 8000606:	f003 0307 	and.w	r3, r3, #7
}
 800060a:	4618      	mov	r0, r3
 800060c:	46bd      	mov	sp, r7
 800060e:	f85d 7b04 	ldr.w	r7, [sp], #4
 8000612:	4770      	bx	lr
 8000614:	e000ed00 	.word	0xe000ed00

08000618 <__NVIC_EnableIRQ>:
  \details Enables a device specific interrupt in the NVIC interrupt controller.
  \param [in]      IRQn  Device specific interrupt number.
  \note    IRQn must not be negative.
 */
__STATIC_INLINE void __NVIC_EnableIRQ(IRQn_Type IRQn)
{
 8000618:	b480      	push	{r7}
 800061a:	b083      	sub	sp, #12
 800061c:	af00      	add	r7, sp, #0
 800061e:	4603      	mov	r3, r0
 8000620:	71fb      	strb	r3, [r7, #7]
  if ((int32_t)(IRQn) >= 0)
 8000622:	f997 3007 	ldrsb.w	r3, [r7, #7]
 8000626:	2b00      	cmp	r3, #0
 8000628:	db0b      	blt.n	8000642 <__NVIC_EnableIRQ+0x2a>
  {
    __COMPILER_BARRIER();
    NVIC->ISER[(((uint32_t)IRQn) >> 5UL)] = (uint32_t)(1UL << (((uint32_t)IRQn) & 0x1FUL));
 800062a:	79fb      	ldrb	r3, [r7, #7]
 800062c:	f003 021f 	and.w	r2, r3, #31
 8000630:	4907      	ldr	r1, [pc, #28]	@ (8000650 <__NVIC_EnableIRQ+0x38>)
 8000632:	f997 3007 	ldrsb.w	r3, [r7, #7]
 8000636:	095b      	lsrs	r3, r3, #5
 8000638:	2001      	movs	r0, #1
 800063a:	fa00 f202 	lsl.w	r2, r0, r2
 800063e:	f841 2023 	str.w	r2, [r1, r3, lsl #2]
    __COMPILER_BARRIER();
  }
}
 8000642:	bf00      	nop
 8000644:	370c      	adds	r7, #12
 8000646:	46bd      	mov	sp, r7
 8000648:	f85d 7b04 	ldr.w	r7, [sp], #4
 800064c:	4770      	bx	lr
 800064e:	bf00      	nop
 8000650:	e000e100 	.word	0xe000e100

08000654 <__NVIC_SetPriority>:
  \param [in]      IRQn  Interrupt number.
  \param [in]  priority  Priority to set.
  \note    The priority cannot be set for every processor exception.
 */
__STATIC_INLINE void __NVIC_SetPriority(IRQn_Type IRQn, uint32_t priority)
{
 8000654:	b480      	push	{r7}
 8000656:	b083      	sub	sp, #12
 8000658:	af00      	add	r7, sp, #0
 800065a:	4603      	mov	r3, r0
 800065c:	6039      	str	r1, [r7, #0]
 800065e:	71fb      	strb	r3, [r7, #7]
  if ((int32_t)(IRQn) >= 0)
 8000660:	f997 3007 	ldrsb.w	r3, [r7, #7]
 8000664:	2b00      	cmp	r3, #0
 8000666:	db0a      	blt.n	800067e <__NVIC_SetPriority+0x2a>
  {
    NVIC->IP[((uint32_t)IRQn)]               = (uint8_t)((priority << (8U - __NVIC_PRIO_BITS)) & (uint32_t)0xFFUL);
 8000668:	683b      	ldr	r3, [r7, #0]
 800066a:	b2da      	uxtb	r2, r3
 800066c:	490c      	ldr	r1, [pc, #48]	@ (80006a0 <__NVIC_SetPriority+0x4c>)
 800066e:	f997 3007 	ldrsb.w	r3, [r7, #7]
 8000672:	0112      	lsls	r2, r2, #4
 8000674:	b2d2      	uxtb	r2, r2
 8000676:	440b      	add	r3, r1
 8000678:	f883 2300 	strb.w	r2, [r3, #768]	@ 0x300
  }
  else
  {
    SCB->SHP[(((uint32_t)IRQn) & 0xFUL)-4UL] = (uint8_t)((priority << (8U - __NVIC_PRIO_BITS)) & (uint32_t)0xFFUL);
  }
}
 800067c:	e00a      	b.n	8000694 <__NVIC_SetPriority+0x40>
    SCB->SHP[(((uint32_t)IRQn) & 0xFUL)-4UL] = (uint8_t)((priority << (8U - __NVIC_PRIO_BITS)) & (uint32_t)0xFFUL);
 800067e:	683b      	ldr	r3, [r7, #0]
 8000680:	b2da      	uxtb	r2, r3
 8000682:	4908      	ldr	r1, [pc, #32]	@ (80006a4 <__NVIC_SetPriority+0x50>)
 8000684:	79fb      	ldrb	r3, [r7, #7]
 8000686:	f003 030f 	and.w	r3, r3, #15
 800068a:	3b04      	subs	r3, #4
 800068c:	0112      	lsls	r2, r2, #4
 800068e:	b2d2      	uxtb	r2, r2
 8000690:	440b      	add	r3, r1
 8000692:	761a      	strb	r2, [r3, #24]
}
 8000694:	bf00      	nop
 8000696:	370c      	adds	r7, #12
 8000698:	46bd      	mov	sp, r7
 800069a:	f85d 7b04 	ldr.w	r7, [sp], #4
 800069e:	4770      	bx	lr
 80006a0:	e000e100 	.word	0xe000e100
 80006a4:	e000ed00 	.word	0xe000ed00

080006a8 <NVIC_EncodePriority>:
  \param [in]   PreemptPriority  Preemptive priority value (starting from 0).
  \param [in]       SubPriority  Subpriority value (starting from 0).
  \return                        Encoded priority. Value can be used in the function \ref NVIC_SetPriority().
 */
__STATIC_INLINE uint32_t NVIC_EncodePriority (uint32_t PriorityGroup, uint32_t PreemptPriority, uint32_t SubPriority)
{
 80006a8:	b480      	push	{r7}
 80006aa:	b089      	sub	sp, #36	@ 0x24
 80006ac:	af00      	add	r7, sp, #0
 80006ae:	60f8      	str	r0, [r7, #12]
 80006b0:	60b9      	str	r1, [r7, #8]
 80006b2:	607a      	str	r2, [r7, #4]
  uint32_t PriorityGroupTmp = (PriorityGroup & (uint32_t)0x07UL);   /* only values 0..7 are used          */
 80006b4:	68fb      	ldr	r3, [r7, #12]
 80006b6:	f003 0307 	and.w	r3, r3, #7
 80006ba:	61fb      	str	r3, [r7, #28]
  uint32_t PreemptPriorityBits;
  uint32_t SubPriorityBits;

  PreemptPriorityBits = ((7UL - PriorityGroupTmp) > (uint32_t)(__NVIC_PRIO_BITS)) ? (uint32_t)(__NVIC_PRIO_BITS) : (uint32_t)(7UL - PriorityGroupTmp);
 80006bc:	69fb      	ldr	r3, [r7, #28]
 80006be:	f1c3 0307 	rsb	r3, r3, #7
 80006c2:	2b04      	cmp	r3, #4
 80006c4:	bf28      	it	cs
 80006c6:	2304      	movcs	r3, #4
 80006c8:	61bb      	str	r3, [r7, #24]
  SubPriorityBits     = ((PriorityGroupTmp + (uint32_t)(__NVIC_PRIO_BITS)) < (uint32_t)7UL) ? (uint32_t)0UL : (uint32_t)((PriorityGroupTmp - 7UL) + (uint32_t)(__NVIC_PRIO_BITS));
 80006ca:	69fb      	ldr	r3, [r7, #28]
 80006cc:	3304      	adds	r3, #4
 80006ce:	2b06      	cmp	r3, #6
 80006d0:	d902      	bls.n	80006d8 <NVIC_EncodePriority+0x30>
 80006d2:	69fb      	ldr	r3, [r7, #28]
 80006d4:	3b03      	subs	r3, #3
 80006d6:	e000      	b.n	80006da <NVIC_EncodePriority+0x32>
 80006d8:	2300      	movs	r3, #0
 80006da:	617b      	str	r3, [r7, #20]

  return (
           ((PreemptPriority & (uint32_t)((1UL << (PreemptPriorityBits)) - 1UL)) << SubPriorityBits) |
 80006dc:	f04f 32ff 	mov.w	r2, #4294967295
 80006e0:	69bb      	ldr	r3, [r7, #24]
 80006e2:	fa02 f303 	lsl.w	r3, r2, r3
 80006e6:	43da      	mvns	r2, r3
 80006e8:	68bb      	ldr	r3, [r7, #8]
 80006ea:	401a      	ands	r2, r3
 80006ec:	697b      	ldr	r3, [r7, #20]
 80006ee:	409a      	lsls	r2, r3
           ((SubPriority     & (uint32_t)((1UL << (SubPriorityBits    )) - 1UL)))
 80006f0:	f04f 31ff 	mov.w	r1, #4294967295
 80006f4:	697b      	ldr	r3, [r7, #20]
 80006f6:	fa01 f303 	lsl.w	r3, r1, r3
 80006fa:	43d9      	mvns	r1, r3
 80006fc:	687b      	ldr	r3, [r7, #4]
 80006fe:	400b      	ands	r3, r1
           ((PreemptPriority & (uint32_t)((1UL << (PreemptPriorityBits)) - 1UL)) << SubPriorityBits) |
 8000700:	4313      	orrs	r3, r2
         );
}
 8000702:	4618      	mov	r0, r3
 8000704:	3724      	adds	r7, #36	@ 0x24
 8000706:	46bd      	mov	sp, r7
 8000708:	f85d 7b04 	ldr.w	r7, [sp], #4
 800070c:	4770      	bx	lr

0800070e <LL_ADC_SetGainCompensation>:
  *         0           Gain compensation will be disabled and value set to 0
  *         1 -> 16393  Gain compensation will be enabled with specified value
  * @retval None
  */
__STATIC_INLINE void LL_ADC_SetGainCompensation(ADC_TypeDef *ADCx, uint32_t GainCompensation)
{
 800070e:	b480      	push	{r7}
 8000710:	b083      	sub	sp, #12
 8000712:	af00      	add	r7, sp, #0
 8000714:	6078      	str	r0, [r7, #4]
 8000716:	6039      	str	r1, [r7, #0]
  MODIFY_REG(ADCx->GCOMP, ADC_GCOMP_GCOMPCOEFF, GainCompensation);
 8000718:	687b      	ldr	r3, [r7, #4]
 800071a:	f8d3 30c0 	ldr.w	r3, [r3, #192]	@ 0xc0
 800071e:	f423 537f 	bic.w	r3, r3, #16320	@ 0x3fc0
 8000722:	f023 033f 	bic.w	r3, r3, #63	@ 0x3f
 8000726:	683a      	ldr	r2, [r7, #0]
 8000728:	431a      	orrs	r2, r3
 800072a:	687b      	ldr	r3, [r7, #4]
 800072c:	f8c3 20c0 	str.w	r2, [r3, #192]	@ 0xc0
  MODIFY_REG(ADCx->CFGR2, ADC_CFGR2_GCOMP, ((GainCompensation == 0UL) ? 0UL : 1UL) << ADC_CFGR2_GCOMP_Pos);
 8000730:	687b      	ldr	r3, [r7, #4]
 8000732:	691b      	ldr	r3, [r3, #16]
 8000734:	f423 3380 	bic.w	r3, r3, #65536	@ 0x10000
 8000738:	683a      	ldr	r2, [r7, #0]
 800073a:	2a00      	cmp	r2, #0
 800073c:	d002      	beq.n	8000744 <LL_ADC_SetGainCompensation+0x36>
 800073e:	f44f 3280 	mov.w	r2, #65536	@ 0x10000
 8000742:	e000      	b.n	8000746 <LL_ADC_SetGainCompensation+0x38>
 8000744:	2200      	movs	r2, #0
 8000746:	431a      	orrs	r2, r3
 8000748:	687b      	ldr	r3, [r7, #4]
 800074a:	611a      	str	r2, [r3, #16]
}
 800074c:	bf00      	nop
 800074e:	370c      	adds	r7, #12
 8000750:	46bd      	mov	sp, r7
 8000752:	f85d 7b04 	ldr.w	r7, [sp], #4
 8000756:	4770      	bx	lr

08000758 <LL_ADC_REG_SetSequencerRanks>:
  *             Other channels are slow channels  allows: 6.5 (sampling) + 12.5 (conversion) = 19 ADC clock cycles
  *             (fADC) to convert in 12-bit resolution.\n
  * @retval None
  */
__STATIC_INLINE void LL_ADC_REG_SetSequencerRanks(ADC_TypeDef *ADCx, uint32_t Rank, uint32_t Channel)
{
 8000758:	b480      	push	{r7}
 800075a:	b087      	sub	sp, #28
 800075c:	af00      	add	r7, sp, #0
 800075e:	60f8      	str	r0, [r7, #12]
 8000760:	60b9      	str	r1, [r7, #8]
 8000762:	607a      	str	r2, [r7, #4]
  /* Set bits with content of parameter "Channel" with bits position          */
  /* in register and register position depending on parameter "Rank".         */
  /* Parameters "Rank" and "Channel" are used with masks because containing   */
  /* other bits reserved for other purpose.                                   */
  __IO uint32_t *preg = __ADC_PTR_REG_OFFSET(ADCx->SQR1,
 8000764:	68fb      	ldr	r3, [r7, #12]
 8000766:	3330      	adds	r3, #48	@ 0x30
 8000768:	461a      	mov	r2, r3
 800076a:	68bb      	ldr	r3, [r7, #8]
 800076c:	0a1b      	lsrs	r3, r3, #8
 800076e:	009b      	lsls	r3, r3, #2
 8000770:	f003 030c 	and.w	r3, r3, #12
 8000774:	4413      	add	r3, r2
 8000776:	617b      	str	r3, [r7, #20]
                                             ((Rank & ADC_REG_SQRX_REGOFFSET_MASK) >> ADC_SQRX_REGOFFSET_POS));

  MODIFY_REG(*preg,
 8000778:	697b      	ldr	r3, [r7, #20]
 800077a:	681a      	ldr	r2, [r3, #0]
 800077c:	68bb      	ldr	r3, [r7, #8]
 800077e:	f003 031f 	and.w	r3, r3, #31
 8000782:	211f      	movs	r1, #31
 8000784:	fa01 f303 	lsl.w	r3, r1, r3
 8000788:	43db      	mvns	r3, r3
 800078a:	401a      	ands	r2, r3
 800078c:	687b      	ldr	r3, [r7, #4]
 800078e:	0e9b      	lsrs	r3, r3, #26
 8000790:	f003 011f 	and.w	r1, r3, #31
 8000794:	68bb      	ldr	r3, [r7, #8]
 8000796:	f003 031f 	and.w	r3, r3, #31
 800079a:	fa01 f303 	lsl.w	r3, r1, r3
 800079e:	431a      	orrs	r2, r3
 80007a0:	697b      	ldr	r3, [r7, #20]
 80007a2:	601a      	str	r2, [r3, #0]
             ADC_CHANNEL_ID_NUMBER_MASK_POSBIT0 << (Rank & ADC_REG_RANK_ID_SQRX_MASK),
             ((Channel & ADC_CHANNEL_ID_NUMBER_MASK) >> ADC_CHANNEL_ID_NUMBER_BITOFFSET_POS)
             << (Rank & ADC_REG_RANK_ID_SQRX_MASK));
}
 80007a4:	bf00      	nop
 80007a6:	371c      	adds	r7, #28
 80007a8:	46bd      	mov	sp, r7
 80007aa:	f85d 7b04 	ldr.w	r7, [sp], #4
 80007ae:	4770      	bx	lr

080007b0 <LL_ADC_SetChannelSamplingTime>:
  *             can be replaced by 3.5 ADC clock cycles.
  *             Refer to function @ref LL_ADC_SetSamplingTimeCommonConfig().
  * @retval None
  */
__STATIC_INLINE void LL_ADC_SetChannelSamplingTime(ADC_TypeDef *ADCx, uint32_t Channel, uint32_t SamplingTime)
{
 80007b0:	b480      	push	{r7}
 80007b2:	b087      	sub	sp, #28
 80007b4:	af00      	add	r7, sp, #0
 80007b6:	60f8      	str	r0, [r7, #12]
 80007b8:	60b9      	str	r1, [r7, #8]
 80007ba:	607a      	str	r2, [r7, #4]
  /* Set bits with content of parameter "SamplingTime" with bits position     */
  /* in register and register position depending on parameter "Channel".      */
  /* Parameter "Channel" is used with masks because containing                */
  /* other bits reserved for other purpose.                                   */
  __IO uint32_t *preg = __ADC_PTR_REG_OFFSET(ADCx->SMPR1,
 80007bc:	68fb      	ldr	r3, [r7, #12]
 80007be:	3314      	adds	r3, #20
 80007c0:	461a      	mov	r2, r3
 80007c2:	68bb      	ldr	r3, [r7, #8]
 80007c4:	0e5b      	lsrs	r3, r3, #25
 80007c6:	009b      	lsls	r3, r3, #2
 80007c8:	f003 0304 	and.w	r3, r3, #4
 80007cc:	4413      	add	r3, r2
 80007ce:	617b      	str	r3, [r7, #20]
                                             ((Channel & ADC_CHANNEL_SMPRX_REGOFFSET_MASK) >> ADC_SMPRX_REGOFFSET_POS));

  MODIFY_REG(*preg,
 80007d0:	697b      	ldr	r3, [r7, #20]
 80007d2:	681a      	ldr	r2, [r3, #0]
 80007d4:	68bb      	ldr	r3, [r7, #8]
 80007d6:	0d1b      	lsrs	r3, r3, #20
 80007d8:	f003 031f 	and.w	r3, r3, #31
 80007dc:	2107      	movs	r1, #7
 80007de:	fa01 f303 	lsl.w	r3, r1, r3
 80007e2:	43db      	mvns	r3, r3
 80007e4:	401a      	ands	r2, r3
 80007e6:	68bb      	ldr	r3, [r7, #8]
 80007e8:	0d1b      	lsrs	r3, r3, #20
 80007ea:	f003 031f 	and.w	r3, r3, #31
 80007ee:	6879      	ldr	r1, [r7, #4]
 80007f0:	fa01 f303 	lsl.w	r3, r1, r3
 80007f4:	431a      	orrs	r2, r3
 80007f6:	697b      	ldr	r3, [r7, #20]
 80007f8:	601a      	str	r2, [r3, #0]
             ADC_SMPR1_SMP0 << ((Channel & ADC_CHANNEL_SMPx_BITOFFSET_MASK) >> ADC_CHANNEL_SMPx_BITOFFSET_POS),
             SamplingTime   << ((Channel & ADC_CHANNEL_SMPx_BITOFFSET_MASK) >> ADC_CHANNEL_SMPx_BITOFFSET_POS));
}
 80007fa:	bf00      	nop
 80007fc:	371c      	adds	r7, #28
 80007fe:	46bd      	mov	sp, r7
 8000800:	f85d 7b04 	ldr.w	r7, [sp], #4
 8000804:	4770      	bx	lr
	...

08000808 <LL_ADC_SetChannelSingleDiff>:
  *         @arg @ref LL_ADC_SINGLE_ENDED
  *         @arg @ref LL_ADC_DIFFERENTIAL_ENDED
  * @retval None
  */
__STATIC_INLINE void LL_ADC_SetChannelSingleDiff(ADC_TypeDef *ADCx, uint32_t Channel, uint32_t SingleDiff)
{
 8000808:	b480      	push	{r7}
 800080a:	b085      	sub	sp, #20
 800080c:	af00      	add	r7, sp, #0
 800080e:	60f8      	str	r0, [r7, #12]
 8000810:	60b9      	str	r1, [r7, #8]
 8000812:	607a      	str	r2, [r7, #4]
  /* Bits of channels in single or differential mode are set only for         */
  /* differential mode (for single mode, mask of bits allowed to be set is    */
  /* shifted out of range of bits of channels in single or differential mode. */
  MODIFY_REG(ADCx->DIFSEL,
 8000814:	68fb      	ldr	r3, [r7, #12]
 8000816:	f8d3 20b0 	ldr.w	r2, [r3, #176]	@ 0xb0
 800081a:	68bb      	ldr	r3, [r7, #8]
 800081c:	f3c3 0312 	ubfx	r3, r3, #0, #19
 8000820:	43db      	mvns	r3, r3
 8000822:	401a      	ands	r2, r3
 8000824:	687b      	ldr	r3, [r7, #4]
 8000826:	f003 0318 	and.w	r3, r3, #24
 800082a:	4908      	ldr	r1, [pc, #32]	@ (800084c <LL_ADC_SetChannelSingleDiff+0x44>)
 800082c:	40d9      	lsrs	r1, r3
 800082e:	68bb      	ldr	r3, [r7, #8]
 8000830:	400b      	ands	r3, r1
 8000832:	f3c3 0312 	ubfx	r3, r3, #0, #19
 8000836:	431a      	orrs	r2, r3
 8000838:	68fb      	ldr	r3, [r7, #12]
 800083a:	f8c3 20b0 	str.w	r2, [r3, #176]	@ 0xb0
             Channel & ADC_SINGLEDIFF_CHANNEL_MASK,
             (Channel & ADC_SINGLEDIFF_CHANNEL_MASK)
             & (ADC_DIFSEL_DIFSEL >> (SingleDiff & ADC_SINGLEDIFF_CHANNEL_SHIFT_MASK)));
}
 800083e:	bf00      	nop
 8000840:	3714      	adds	r7, #20
 8000842:	46bd      	mov	sp, r7
 8000844:	f85d 7b04 	ldr.w	r7, [sp], #4
 8000848:	4770      	bx	lr
 800084a:	bf00      	nop
 800084c:	0007ffff 	.word	0x0007ffff

08000850 <LL_ADC_SetOverSamplingScope>:
  *         @arg @ref LL_ADC_OVS_GRP_INJECTED
  *         @arg @ref LL_ADC_OVS_GRP_INJ_REG_RESUMED
  * @retval None
  */
__STATIC_INLINE void LL_ADC_SetOverSamplingScope(ADC_TypeDef *ADCx, uint32_t OvsScope)
{
 8000850:	b480      	push	{r7}
 8000852:	b083      	sub	sp, #12
 8000854:	af00      	add	r7, sp, #0
 8000856:	6078      	str	r0, [r7, #4]
 8000858:	6039      	str	r1, [r7, #0]
  MODIFY_REG(ADCx->CFGR2, ADC_CFGR2_ROVSE | ADC_CFGR2_JOVSE | ADC_CFGR2_ROVSM, OvsScope);
 800085a:	687b      	ldr	r3, [r7, #4]
 800085c:	691b      	ldr	r3, [r3, #16]
 800085e:	f423 6380 	bic.w	r3, r3, #1024	@ 0x400
 8000862:	f023 0303 	bic.w	r3, r3, #3
 8000866:	683a      	ldr	r2, [r7, #0]
 8000868:	431a      	orrs	r2, r3
 800086a:	687b      	ldr	r3, [r7, #4]
 800086c:	611a      	str	r2, [r3, #16]
}
 800086e:	bf00      	nop
 8000870:	370c      	adds	r7, #12
 8000872:	46bd      	mov	sp, r7
 8000874:	f85d 7b04 	ldr.w	r7, [sp], #4
 8000878:	4770      	bx	lr

0800087a <LL_ADC_DisableDeepPowerDown>:
  * @rmtoll CR       DEEPPWD        LL_ADC_DisableDeepPowerDown
  * @param  ADCx ADC instance
  * @retval None
  */
__STATIC_INLINE void LL_ADC_DisableDeepPowerDown(ADC_TypeDef *ADCx)
{
 800087a:	b480      	push	{r7}
 800087c:	b083      	sub	sp, #12
 800087e:	af00      	add	r7, sp, #0
 8000880:	6078      	str	r0, [r7, #4]
  /* Note: Write register with some additional bits forced to state reset     */
  /*       instead of modifying only the selected bit for this function,      */
  /*       to not interfere with bits with HW property "rs".                  */
  CLEAR_BIT(ADCx->CR, (ADC_CR_DEEPPWD | ADC_CR_BITS_PROPERTY_RS));
 8000882:	687b      	ldr	r3, [r7, #4]
 8000884:	689b      	ldr	r3, [r3, #8]
 8000886:	f023 4320 	bic.w	r3, r3, #2684354560	@ 0xa0000000
 800088a:	f023 033f 	bic.w	r3, r3, #63	@ 0x3f
 800088e:	687a      	ldr	r2, [r7, #4]
 8000890:	6093      	str	r3, [r2, #8]
}
 8000892:	bf00      	nop
 8000894:	370c      	adds	r7, #12
 8000896:	46bd      	mov	sp, r7
 8000898:	f85d 7b04 	ldr.w	r7, [sp], #4
 800089c:	4770      	bx	lr

0800089e <LL_ADC_EnableInternalRegulator>:
  * @rmtoll CR       ADVREGEN       LL_ADC_EnableInternalRegulator
  * @param  ADCx ADC instance
  * @retval None
  */
__STATIC_INLINE void LL_ADC_EnableInternalRegulator(ADC_TypeDef *ADCx)
{
 800089e:	b480      	push	{r7}
 80008a0:	b083      	sub	sp, #12
 80008a2:	af00      	add	r7, sp, #0
 80008a4:	6078      	str	r0, [r7, #4]
  /* Note: Write register with some additional bits forced to state reset     */
  /*       instead of modifying only the selected bit for this function,      */
  /*       to not interfere with bits with HW property "rs".                  */
  MODIFY_REG(ADCx->CR,
 80008a6:	687b      	ldr	r3, [r7, #4]
 80008a8:	689b      	ldr	r3, [r3, #8]
 80008aa:	f023 4310 	bic.w	r3, r3, #2415919104	@ 0x90000000
 80008ae:	f023 033f 	bic.w	r3, r3, #63	@ 0x3f
 80008b2:	f043 5280 	orr.w	r2, r3, #268435456	@ 0x10000000
 80008b6:	687b      	ldr	r3, [r7, #4]
 80008b8:	609a      	str	r2, [r3, #8]
             ADC_CR_BITS_PROPERTY_RS,
             ADC_CR_ADVREGEN);
}
 80008ba:	bf00      	nop
 80008bc:	370c      	adds	r7, #12
 80008be:	46bd      	mov	sp, r7
 80008c0:	f85d 7b04 	ldr.w	r7, [sp], #4
 80008c4:	4770      	bx	lr
	...

080008c8 <LL_DMA_SetDataTransferDirection>:
  *         @arg @ref LL_DMA_DIRECTION_MEMORY_TO_PERIPH
  *         @arg @ref LL_DMA_DIRECTION_MEMORY_TO_MEMORY
  * @retval None
  */
__STATIC_INLINE void LL_DMA_SetDataTransferDirection(DMA_TypeDef *DMAx, uint32_t Channel, uint32_t Direction)
{
 80008c8:	b480      	push	{r7}
 80008ca:	b087      	sub	sp, #28
 80008cc:	af00      	add	r7, sp, #0
 80008ce:	60f8      	str	r0, [r7, #12]
 80008d0:	60b9      	str	r1, [r7, #8]
 80008d2:	607a      	str	r2, [r7, #4]
  uint32_t dma_base_addr = (uint32_t)DMAx;
 80008d4:	68fb      	ldr	r3, [r7, #12]
 80008d6:	617b      	str	r3, [r7, #20]
  MODIFY_REG(((DMA_Channel_TypeDef *)((uint32_t)(dma_base_addr + CHANNEL_OFFSET_TAB[Channel])))->CCR,
 80008d8:	4a0e      	ldr	r2, [pc, #56]	@ (8000914 <LL_DMA_SetDataTransferDirection+0x4c>)
 80008da:	68bb      	ldr	r3, [r7, #8]
 80008dc:	4413      	add	r3, r2
 80008de:	781b      	ldrb	r3, [r3, #0]
 80008e0:	461a      	mov	r2, r3
 80008e2:	697b      	ldr	r3, [r7, #20]
 80008e4:	4413      	add	r3, r2
 80008e6:	681b      	ldr	r3, [r3, #0]
 80008e8:	f423 4380 	bic.w	r3, r3, #16384	@ 0x4000
 80008ec:	f023 0310 	bic.w	r3, r3, #16
 80008f0:	4908      	ldr	r1, [pc, #32]	@ (8000914 <LL_DMA_SetDataTransferDirection+0x4c>)
 80008f2:	68ba      	ldr	r2, [r7, #8]
 80008f4:	440a      	add	r2, r1
 80008f6:	7812      	ldrb	r2, [r2, #0]
 80008f8:	4611      	mov	r1, r2
 80008fa:	697a      	ldr	r2, [r7, #20]
 80008fc:	440a      	add	r2, r1
 80008fe:	4611      	mov	r1, r2
 8000900:	687a      	ldr	r2, [r7, #4]
 8000902:	4313      	orrs	r3, r2
 8000904:	600b      	str	r3, [r1, #0]
             DMA_CCR_DIR | DMA_CCR_MEM2MEM, Direction);
}
 8000906:	bf00      	nop
 8000908:	371c      	adds	r7, #28
 800090a:	46bd      	mov	sp, r7
 800090c:	f85d 7b04 	ldr.w	r7, [sp], #4
 8000910:	4770      	bx	lr
 8000912:	bf00      	nop
 8000914:	080038b8 	.word	0x080038b8

08000918 <LL_DMA_SetMode>:
  *         @arg @ref LL_DMA_MODE_NORMAL
  *         @arg @ref LL_DMA_MODE_CIRCULAR
  * @retval None
  */
__STATIC_INLINE void LL_DMA_SetMode(DMA_TypeDef *DMAx, uint32_t Channel, uint32_t Mode)
{
 8000918:	b480      	push	{r7}
 800091a:	b087      	sub	sp, #28
 800091c:	af00      	add	r7, sp, #0
 800091e:	60f8      	str	r0, [r7, #12]
 8000920:	60b9      	str	r1, [r7, #8]
 8000922:	607a      	str	r2, [r7, #4]
  uint32_t dma_base_addr = (uint32_t)DMAx;
 8000924:	68fb      	ldr	r3, [r7, #12]
 8000926:	617b      	str	r3, [r7, #20]
  MODIFY_REG(((DMA_Channel_TypeDef *)((uint32_t)(dma_base_addr + CHANNEL_OFFSET_TAB[Channel])))->CCR, DMA_CCR_CIRC,
 8000928:	4a0d      	ldr	r2, [pc, #52]	@ (8000960 <LL_DMA_SetMode+0x48>)
 800092a:	68bb      	ldr	r3, [r7, #8]
 800092c:	4413      	add	r3, r2
 800092e:	781b      	ldrb	r3, [r3, #0]
 8000930:	461a      	mov	r2, r3
 8000932:	697b      	ldr	r3, [r7, #20]
 8000934:	4413      	add	r3, r2
 8000936:	681b      	ldr	r3, [r3, #0]
 8000938:	f023 0220 	bic.w	r2, r3, #32
 800093c:	4908      	ldr	r1, [pc, #32]	@ (8000960 <LL_DMA_SetMode+0x48>)
 800093e:	68bb      	ldr	r3, [r7, #8]
 8000940:	440b      	add	r3, r1
 8000942:	781b      	ldrb	r3, [r3, #0]
 8000944:	4619      	mov	r1, r3
 8000946:	697b      	ldr	r3, [r7, #20]
 8000948:	440b      	add	r3, r1
 800094a:	4619      	mov	r1, r3
 800094c:	687b      	ldr	r3, [r7, #4]
 800094e:	4313      	orrs	r3, r2
 8000950:	600b      	str	r3, [r1, #0]
             Mode);
}
 8000952:	bf00      	nop
 8000954:	371c      	adds	r7, #28
 8000956:	46bd      	mov	sp, r7
 8000958:	f85d 7b04 	ldr.w	r7, [sp], #4
 800095c:	4770      	bx	lr
 800095e:	bf00      	nop
 8000960:	080038b8 	.word	0x080038b8

08000964 <LL_DMA_SetPeriphIncMode>:
  *         @arg @ref LL_DMA_PERIPH_INCREMENT
  *         @arg @ref LL_DMA_PERIPH_NOINCREMENT
  * @retval None
  */
__STATIC_INLINE void LL_DMA_SetPeriphIncMode(DMA_TypeDef *DMAx, uint32_t Channel, uint32_t PeriphOrM2MSrcIncMode)
{
 8000964:	b480      	push	{r7}
 8000966:	b087      	sub	sp, #28
 8000968:	af00      	add	r7, sp, #0
 800096a:	60f8      	str	r0, [r7, #12]
 800096c:	60b9      	str	r1, [r7, #8]
 800096e:	607a      	str	r2, [r7, #4]
  uint32_t dma_base_addr = (uint32_t)DMAx;
 8000970:	68fb      	ldr	r3, [r7, #12]
 8000972:	617b      	str	r3, [r7, #20]
  MODIFY_REG(((DMA_Channel_TypeDef *)((uint32_t)(dma_base_addr + CHANNEL_OFFSET_TAB[Channel])))->CCR, DMA_CCR_PINC,
 8000974:	4a0d      	ldr	r2, [pc, #52]	@ (80009ac <LL_DMA_SetPeriphIncMode+0x48>)
 8000976:	68bb      	ldr	r3, [r7, #8]
 8000978:	4413      	add	r3, r2
 800097a:	781b      	ldrb	r3, [r3, #0]
 800097c:	461a      	mov	r2, r3
 800097e:	697b      	ldr	r3, [r7, #20]
 8000980:	4413      	add	r3, r2
 8000982:	681b      	ldr	r3, [r3, #0]
 8000984:	f023 0240 	bic.w	r2, r3, #64	@ 0x40
 8000988:	4908      	ldr	r1, [pc, #32]	@ (80009ac <LL_DMA_SetPeriphIncMode+0x48>)
 800098a:	68bb      	ldr	r3, [r7, #8]
 800098c:	440b      	add	r3, r1
 800098e:	781b      	ldrb	r3, [r3, #0]
 8000990:	4619      	mov	r1, r3
 8000992:	697b      	ldr	r3, [r7, #20]
 8000994:	440b      	add	r3, r1
 8000996:	4619      	mov	r1, r3
 8000998:	687b      	ldr	r3, [r7, #4]
 800099a:	4313      	orrs	r3, r2
 800099c:	600b      	str	r3, [r1, #0]
             PeriphOrM2MSrcIncMode);
}
 800099e:	bf00      	nop
 80009a0:	371c      	adds	r7, #28
 80009a2:	46bd      	mov	sp, r7
 80009a4:	f85d 7b04 	ldr.w	r7, [sp], #4
 80009a8:	4770      	bx	lr
 80009aa:	bf00      	nop
 80009ac:	080038b8 	.word	0x080038b8

080009b0 <LL_DMA_SetMemoryIncMode>:
  *         @arg @ref LL_DMA_MEMORY_INCREMENT
  *         @arg @ref LL_DMA_MEMORY_NOINCREMENT
  * @retval None
  */
__STATIC_INLINE void LL_DMA_SetMemoryIncMode(DMA_TypeDef *DMAx, uint32_t Channel, uint32_t MemoryOrM2MDstIncMode)
{
 80009b0:	b480      	push	{r7}
 80009b2:	b087      	sub	sp, #28
 80009b4:	af00      	add	r7, sp, #0
 80009b6:	60f8      	str	r0, [r7, #12]
 80009b8:	60b9      	str	r1, [r7, #8]
 80009ba:	607a      	str	r2, [r7, #4]
  uint32_t dma_base_addr = (uint32_t)DMAx;
 80009bc:	68fb      	ldr	r3, [r7, #12]
 80009be:	617b      	str	r3, [r7, #20]
  MODIFY_REG(((DMA_Channel_TypeDef *)((uint32_t)(dma_base_addr + CHANNEL_OFFSET_TAB[Channel])))->CCR, DMA_CCR_MINC,
 80009c0:	4a0d      	ldr	r2, [pc, #52]	@ (80009f8 <LL_DMA_SetMemoryIncMode+0x48>)
 80009c2:	68bb      	ldr	r3, [r7, #8]
 80009c4:	4413      	add	r3, r2
 80009c6:	781b      	ldrb	r3, [r3, #0]
 80009c8:	461a      	mov	r2, r3
 80009ca:	697b      	ldr	r3, [r7, #20]
 80009cc:	4413      	add	r3, r2
 80009ce:	681b      	ldr	r3, [r3, #0]
 80009d0:	f023 0280 	bic.w	r2, r3, #128	@ 0x80
 80009d4:	4908      	ldr	r1, [pc, #32]	@ (80009f8 <LL_DMA_SetMemoryIncMode+0x48>)
 80009d6:	68bb      	ldr	r3, [r7, #8]
 80009d8:	440b      	add	r3, r1
 80009da:	781b      	ldrb	r3, [r3, #0]
 80009dc:	4619      	mov	r1, r3
 80009de:	697b      	ldr	r3, [r7, #20]
 80009e0:	440b      	add	r3, r1
 80009e2:	4619      	mov	r1, r3
 80009e4:	687b      	ldr	r3, [r7, #4]
 80009e6:	4313      	orrs	r3, r2
 80009e8:	600b      	str	r3, [r1, #0]
             MemoryOrM2MDstIncMode);
}
 80009ea:	bf00      	nop
 80009ec:	371c      	adds	r7, #28
 80009ee:	46bd      	mov	sp, r7
 80009f0:	f85d 7b04 	ldr.w	r7, [sp], #4
 80009f4:	4770      	bx	lr
 80009f6:	bf00      	nop
 80009f8:	080038b8 	.word	0x080038b8

080009fc <LL_DMA_SetPeriphSize>:
  *         @arg @ref LL_DMA_PDATAALIGN_HALFWORD
  *         @arg @ref LL_DMA_PDATAALIGN_WORD
  * @retval None
  */
__STATIC_INLINE void LL_DMA_SetPeriphSize(DMA_TypeDef *DMAx, uint32_t Channel, uint32_t PeriphOrM2MSrcDataSize)
{
 80009fc:	b480      	push	{r7}
 80009fe:	b087      	sub	sp, #28
 8000a00:	af00      	add	r7, sp, #0
 8000a02:	60f8      	str	r0, [r7, #12]
 8000a04:	60b9      	str	r1, [r7, #8]
 8000a06:	607a      	str	r2, [r7, #4]
  uint32_t dma_base_addr = (uint32_t)DMAx;
 8000a08:	68fb      	ldr	r3, [r7, #12]
 8000a0a:	617b      	str	r3, [r7, #20]
  MODIFY_REG(((DMA_Channel_TypeDef *)((uint32_t)(dma_base_addr + CHANNEL_OFFSET_TAB[Channel])))->CCR, DMA_CCR_PSIZE,
 8000a0c:	4a0d      	ldr	r2, [pc, #52]	@ (8000a44 <LL_DMA_SetPeriphSize+0x48>)
 8000a0e:	68bb      	ldr	r3, [r7, #8]
 8000a10:	4413      	add	r3, r2
 8000a12:	781b      	ldrb	r3, [r3, #0]
 8000a14:	461a      	mov	r2, r3
 8000a16:	697b      	ldr	r3, [r7, #20]
 8000a18:	4413      	add	r3, r2
 8000a1a:	681b      	ldr	r3, [r3, #0]
 8000a1c:	f423 7240 	bic.w	r2, r3, #768	@ 0x300
 8000a20:	4908      	ldr	r1, [pc, #32]	@ (8000a44 <LL_DMA_SetPeriphSize+0x48>)
 8000a22:	68bb      	ldr	r3, [r7, #8]
 8000a24:	440b      	add	r3, r1
 8000a26:	781b      	ldrb	r3, [r3, #0]
 8000a28:	4619      	mov	r1, r3
 8000a2a:	697b      	ldr	r3, [r7, #20]
 8000a2c:	440b      	add	r3, r1
 8000a2e:	4619      	mov	r1, r3
 8000a30:	687b      	ldr	r3, [r7, #4]
 8000a32:	4313      	orrs	r3, r2
 8000a34:	600b      	str	r3, [r1, #0]
             PeriphOrM2MSrcDataSize);
}
 8000a36:	bf00      	nop
 8000a38:	371c      	adds	r7, #28
 8000a3a:	46bd      	mov	sp, r7
 8000a3c:	f85d 7b04 	ldr.w	r7, [sp], #4
 8000a40:	4770      	bx	lr
 8000a42:	bf00      	nop
 8000a44:	080038b8 	.word	0x080038b8

08000a48 <LL_DMA_SetMemorySize>:
  *         @arg @ref LL_DMA_MDATAALIGN_HALFWORD
  *         @arg @ref LL_DMA_MDATAALIGN_WORD
  * @retval None
  */
__STATIC_INLINE void LL_DMA_SetMemorySize(DMA_TypeDef *DMAx, uint32_t Channel, uint32_t MemoryOrM2MDstDataSize)
{
 8000a48:	b480      	push	{r7}
 8000a4a:	b087      	sub	sp, #28
 8000a4c:	af00      	add	r7, sp, #0
 8000a4e:	60f8      	str	r0, [r7, #12]
 8000a50:	60b9      	str	r1, [r7, #8]
 8000a52:	607a      	str	r2, [r7, #4]
  uint32_t dma_base_addr = (uint32_t)DMAx;
 8000a54:	68fb      	ldr	r3, [r7, #12]
 8000a56:	617b      	str	r3, [r7, #20]
  MODIFY_REG(((DMA_Channel_TypeDef *)((uint32_t)(dma_base_addr + CHANNEL_OFFSET_TAB[Channel])))->CCR, DMA_CCR_MSIZE,
 8000a58:	4a0d      	ldr	r2, [pc, #52]	@ (8000a90 <LL_DMA_SetMemorySize+0x48>)
 8000a5a:	68bb      	ldr	r3, [r7, #8]
 8000a5c:	4413      	add	r3, r2
 8000a5e:	781b      	ldrb	r3, [r3, #0]
 8000a60:	461a      	mov	r2, r3
 8000a62:	697b      	ldr	r3, [r7, #20]
 8000a64:	4413      	add	r3, r2
 8000a66:	681b      	ldr	r3, [r3, #0]
 8000a68:	f423 6240 	bic.w	r2, r3, #3072	@ 0xc00
 8000a6c:	4908      	ldr	r1, [pc, #32]	@ (8000a90 <LL_DMA_SetMemorySize+0x48>)
 8000a6e:	68bb      	ldr	r3, [r7, #8]
 8000a70:	440b      	add	r3, r1
 8000a72:	781b      	ldrb	r3, [r3, #0]
 8000a74:	4619      	mov	r1, r3
 8000a76:	697b      	ldr	r3, [r7, #20]
 8000a78:	440b      	add	r3, r1
 8000a7a:	4619      	mov	r1, r3
 8000a7c:	687b      	ldr	r3, [r7, #4]
 8000a7e:	4313      	orrs	r3, r2
 8000a80:	600b      	str	r3, [r1, #0]
             MemoryOrM2MDstDataSize);
}
 8000a82:	bf00      	nop
 8000a84:	371c      	adds	r7, #28
 8000a86:	46bd      	mov	sp, r7
 8000a88:	f85d 7b04 	ldr.w	r7, [sp], #4
 8000a8c:	4770      	bx	lr
 8000a8e:	bf00      	nop
 8000a90:	080038b8 	.word	0x080038b8

08000a94 <LL_DMA_SetChannelPriorityLevel>:
  *         @arg @ref LL_DMA_PRIORITY_HIGH
  *         @arg @ref LL_DMA_PRIORITY_VERYHIGH
  * @retval None
  */
__STATIC_INLINE void LL_DMA_SetChannelPriorityLevel(DMA_TypeDef *DMAx, uint32_t Channel, uint32_t Priority)
{
 8000a94:	b480      	push	{r7}
 8000a96:	b087      	sub	sp, #28
 8000a98:	af00      	add	r7, sp, #0
 8000a9a:	60f8      	str	r0, [r7, #12]
 8000a9c:	60b9      	str	r1, [r7, #8]
 8000a9e:	607a      	str	r2, [r7, #4]
  uint32_t dma_base_addr = (uint32_t)DMAx;
 8000aa0:	68fb      	ldr	r3, [r7, #12]
 8000aa2:	617b      	str	r3, [r7, #20]
  MODIFY_REG(((DMA_Channel_TypeDef *)((uint32_t)(dma_base_addr + CHANNEL_OFFSET_TAB[Channel])))->CCR, DMA_CCR_PL,
 8000aa4:	4a0d      	ldr	r2, [pc, #52]	@ (8000adc <LL_DMA_SetChannelPriorityLevel+0x48>)
 8000aa6:	68bb      	ldr	r3, [r7, #8]
 8000aa8:	4413      	add	r3, r2
 8000aaa:	781b      	ldrb	r3, [r3, #0]
 8000aac:	461a      	mov	r2, r3
 8000aae:	697b      	ldr	r3, [r7, #20]
 8000ab0:	4413      	add	r3, r2
 8000ab2:	681b      	ldr	r3, [r3, #0]
 8000ab4:	f423 5240 	bic.w	r2, r3, #12288	@ 0x3000
 8000ab8:	4908      	ldr	r1, [pc, #32]	@ (8000adc <LL_DMA_SetChannelPriorityLevel+0x48>)
 8000aba:	68bb      	ldr	r3, [r7, #8]
 8000abc:	440b      	add	r3, r1
 8000abe:	781b      	ldrb	r3, [r3, #0]
 8000ac0:	4619      	mov	r1, r3
 8000ac2:	697b      	ldr	r3, [r7, #20]
 8000ac4:	440b      	add	r3, r1
 8000ac6:	4619      	mov	r1, r3
 8000ac8:	687b      	ldr	r3, [r7, #4]
 8000aca:	4313      	orrs	r3, r2
 8000acc:	600b      	str	r3, [r1, #0]
             Priority);
}
 8000ace:	bf00      	nop
 8000ad0:	371c      	adds	r7, #28
 8000ad2:	46bd      	mov	sp, r7
 8000ad4:	f85d 7b04 	ldr.w	r7, [sp], #4
 8000ad8:	4770      	bx	lr
 8000ada:	bf00      	nop
 8000adc:	080038b8 	.word	0x080038b8

08000ae0 <LL_DMA_SetPeriphRequest>:
  *         @arg @ref LL_DMAMUX_REQ_UCPD1_TX
  *         (*) Not on all G4 devices
  * @retval None
  */
__STATIC_INLINE void LL_DMA_SetPeriphRequest(DMA_TypeDef *DMAx, uint32_t Channel, uint32_t PeriphRequest)
{
 8000ae0:	b480      	push	{r7}
 8000ae2:	b087      	sub	sp, #28
 8000ae4:	af00      	add	r7, sp, #0
 8000ae6:	60f8      	str	r0, [r7, #12]
 8000ae8:	60b9      	str	r1, [r7, #8]
 8000aea:	607a      	str	r2, [r7, #4]
  uint32_t dmamux_ccr_offset = ((((uint32_t)DMAx ^ (uint32_t)DMA1) >> 10U) * 8U);
 8000aec:	68fb      	ldr	r3, [r7, #12]
 8000aee:	0a9b      	lsrs	r3, r3, #10
 8000af0:	f483 1380 	eor.w	r3, r3, #1048576	@ 0x100000
 8000af4:	f083 0380 	eor.w	r3, r3, #128	@ 0x80
 8000af8:	00db      	lsls	r3, r3, #3
 8000afa:	617b      	str	r3, [r7, #20]
  MODIFY_REG((DMAMUX1_Channel0 + Channel + dmamux_ccr_offset)->CCR, DMAMUX_CxCR_DMAREQ_ID, PeriphRequest);
 8000afc:	68ba      	ldr	r2, [r7, #8]
 8000afe:	697b      	ldr	r3, [r7, #20]
 8000b00:	4413      	add	r3, r2
 8000b02:	009b      	lsls	r3, r3, #2
 8000b04:	f103 4380 	add.w	r3, r3, #1073741824	@ 0x40000000
 8000b08:	f503 3302 	add.w	r3, r3, #133120	@ 0x20800
 8000b0c:	681b      	ldr	r3, [r3, #0]
 8000b0e:	f023 01ff 	bic.w	r1, r3, #255	@ 0xff
 8000b12:	68ba      	ldr	r2, [r7, #8]
 8000b14:	697b      	ldr	r3, [r7, #20]
 8000b16:	4413      	add	r3, r2
 8000b18:	009b      	lsls	r3, r3, #2
 8000b1a:	f103 4380 	add.w	r3, r3, #1073741824	@ 0x40000000
 8000b1e:	f503 3302 	add.w	r3, r3, #133120	@ 0x20800
 8000b22:	687a      	ldr	r2, [r7, #4]
 8000b24:	430a      	orrs	r2, r1
 8000b26:	601a      	str	r2, [r3, #0]
}
 8000b28:	bf00      	nop
 8000b2a:	371c      	adds	r7, #28
 8000b2c:	46bd      	mov	sp, r7
 8000b2e:	f85d 7b04 	ldr.w	r7, [sp], #4
 8000b32:	4770      	bx	lr

08000b34 <LL_RCC_HSE_Enable>:
  * @brief  Enable HSE crystal oscillator (HSE ON)
  * @rmtoll CR           HSEON         LL_RCC_HSE_Enable
  * @retval None
  */
__STATIC_INLINE void LL_RCC_HSE_Enable(void)
{
 8000b34:	b480      	push	{r7}
 8000b36:	af00      	add	r7, sp, #0
  SET_BIT(RCC->CR, RCC_CR_HSEON);
 8000b38:	4b05      	ldr	r3, [pc, #20]	@ (8000b50 <LL_RCC_HSE_Enable+0x1c>)
 8000b3a:	681b      	ldr	r3, [r3, #0]
 8000b3c:	4a04      	ldr	r2, [pc, #16]	@ (8000b50 <LL_RCC_HSE_Enable+0x1c>)
 8000b3e:	f443 3380 	orr.w	r3, r3, #65536	@ 0x10000
 8000b42:	6013      	str	r3, [r2, #0]
}
 8000b44:	bf00      	nop
 8000b46:	46bd      	mov	sp, r7
 8000b48:	f85d 7b04 	ldr.w	r7, [sp], #4
 8000b4c:	4770      	bx	lr
 8000b4e:	bf00      	nop
 8000b50:	40021000 	.word	0x40021000

08000b54 <LL_RCC_HSE_IsReady>:
  * @brief  Check if HSE oscillator Ready
  * @rmtoll CR           HSERDY        LL_RCC_HSE_IsReady
  * @retval State of bit (1 or 0).
  */
__STATIC_INLINE uint32_t LL_RCC_HSE_IsReady(void)
{
 8000b54:	b480      	push	{r7}
 8000b56:	af00      	add	r7, sp, #0
  return ((READ_BIT(RCC->CR, RCC_CR_HSERDY) == (RCC_CR_HSERDY)) ? 1UL : 0UL);
 8000b58:	4b07      	ldr	r3, [pc, #28]	@ (8000b78 <LL_RCC_HSE_IsReady+0x24>)
 8000b5a:	681b      	ldr	r3, [r3, #0]
 8000b5c:	f403 3300 	and.w	r3, r3, #131072	@ 0x20000
 8000b60:	f5b3 3f00 	cmp.w	r3, #131072	@ 0x20000
 8000b64:	d101      	bne.n	8000b6a <LL_RCC_HSE_IsReady+0x16>
 8000b66:	2301      	movs	r3, #1
 8000b68:	e000      	b.n	8000b6c <LL_RCC_HSE_IsReady+0x18>
 8000b6a:	2300      	movs	r3, #0
}
 8000b6c:	4618      	mov	r0, r3
 8000b6e:	46bd      	mov	sp, r7
 8000b70:	f85d 7b04 	ldr.w	r7, [sp], #4
 8000b74:	4770      	bx	lr
 8000b76:	bf00      	nop
 8000b78:	40021000 	.word	0x40021000

08000b7c <LL_RCC_SetSysClkSource>:
  *         @arg @ref LL_RCC_SYS_CLKSOURCE_HSE
  *         @arg @ref LL_RCC_SYS_CLKSOURCE_PLL
  * @retval None
  */
__STATIC_INLINE void LL_RCC_SetSysClkSource(uint32_t Source)
{
 8000b7c:	b480      	push	{r7}
 8000b7e:	b083      	sub	sp, #12
 8000b80:	af00      	add	r7, sp, #0
 8000b82:	6078      	str	r0, [r7, #4]
  MODIFY_REG(RCC->CFGR, RCC_CFGR_SW, Source);
 8000b84:	4b06      	ldr	r3, [pc, #24]	@ (8000ba0 <LL_RCC_SetSysClkSource+0x24>)
 8000b86:	689b      	ldr	r3, [r3, #8]
 8000b88:	f023 0203 	bic.w	r2, r3, #3
 8000b8c:	4904      	ldr	r1, [pc, #16]	@ (8000ba0 <LL_RCC_SetSysClkSource+0x24>)
 8000b8e:	687b      	ldr	r3, [r7, #4]
 8000b90:	4313      	orrs	r3, r2
 8000b92:	608b      	str	r3, [r1, #8]
}
 8000b94:	bf00      	nop
 8000b96:	370c      	adds	r7, #12
 8000b98:	46bd      	mov	sp, r7
 8000b9a:	f85d 7b04 	ldr.w	r7, [sp], #4
 8000b9e:	4770      	bx	lr
 8000ba0:	40021000 	.word	0x40021000

08000ba4 <LL_RCC_GetSysClkSource>:
  *         @arg @ref LL_RCC_SYS_CLKSOURCE_STATUS_HSI
  *         @arg @ref LL_RCC_SYS_CLKSOURCE_STATUS_HSE
  *         @arg @ref LL_RCC_SYS_CLKSOURCE_STATUS_PLL
  */
__STATIC_INLINE uint32_t LL_RCC_GetSysClkSource(void)
{
 8000ba4:	b480      	push	{r7}
 8000ba6:	af00      	add	r7, sp, #0
  return (uint32_t)(READ_BIT(RCC->CFGR, RCC_CFGR_SWS));
 8000ba8:	4b04      	ldr	r3, [pc, #16]	@ (8000bbc <LL_RCC_GetSysClkSource+0x18>)
 8000baa:	689b      	ldr	r3, [r3, #8]
 8000bac:	f003 030c 	and.w	r3, r3, #12
}
 8000bb0:	4618      	mov	r0, r3
 8000bb2:	46bd      	mov	sp, r7
 8000bb4:	f85d 7b04 	ldr.w	r7, [sp], #4
 8000bb8:	4770      	bx	lr
 8000bba:	bf00      	nop
 8000bbc:	40021000 	.word	0x40021000

08000bc0 <LL_RCC_SetAHBPrescaler>:
  *         @arg @ref LL_RCC_SYSCLK_DIV_256
  *         @arg @ref LL_RCC_SYSCLK_DIV_512
  * @retval None
  */
__STATIC_INLINE void LL_RCC_SetAHBPrescaler(uint32_t Prescaler)
{
 8000bc0:	b480      	push	{r7}
 8000bc2:	b083      	sub	sp, #12
 8000bc4:	af00      	add	r7, sp, #0
 8000bc6:	6078      	str	r0, [r7, #4]
  MODIFY_REG(RCC->CFGR, RCC_CFGR_HPRE, Prescaler);
 8000bc8:	4b06      	ldr	r3, [pc, #24]	@ (8000be4 <LL_RCC_SetAHBPrescaler+0x24>)
 8000bca:	689b      	ldr	r3, [r3, #8]
 8000bcc:	f023 02f0 	bic.w	r2, r3, #240	@ 0xf0
 8000bd0:	4904      	ldr	r1, [pc, #16]	@ (8000be4 <LL_RCC_SetAHBPrescaler+0x24>)
 8000bd2:	687b      	ldr	r3, [r7, #4]
 8000bd4:	4313      	orrs	r3, r2
 8000bd6:	608b      	str	r3, [r1, #8]
}
 8000bd8:	bf00      	nop
 8000bda:	370c      	adds	r7, #12
 8000bdc:	46bd      	mov	sp, r7
 8000bde:	f85d 7b04 	ldr.w	r7, [sp], #4
 8000be2:	4770      	bx	lr
 8000be4:	40021000 	.word	0x40021000

08000be8 <LL_RCC_SetAPB1Prescaler>:
  *         @arg @ref LL_RCC_APB1_DIV_8
  *         @arg @ref LL_RCC_APB1_DIV_16
  * @retval None
  */
__STATIC_INLINE void LL_RCC_SetAPB1Prescaler(uint32_t Prescaler)
{
 8000be8:	b480      	push	{r7}
 8000bea:	b083      	sub	sp, #12
 8000bec:	af00      	add	r7, sp, #0
 8000bee:	6078      	str	r0, [r7, #4]
  MODIFY_REG(RCC->CFGR, RCC_CFGR_PPRE1, Prescaler);
 8000bf0:	4b06      	ldr	r3, [pc, #24]	@ (8000c0c <LL_RCC_SetAPB1Prescaler+0x24>)
 8000bf2:	689b      	ldr	r3, [r3, #8]
 8000bf4:	f423 62e0 	bic.w	r2, r3, #1792	@ 0x700
 8000bf8:	4904      	ldr	r1, [pc, #16]	@ (8000c0c <LL_RCC_SetAPB1Prescaler+0x24>)
 8000bfa:	687b      	ldr	r3, [r7, #4]
 8000bfc:	4313      	orrs	r3, r2
 8000bfe:	608b      	str	r3, [r1, #8]
}
 8000c00:	bf00      	nop
 8000c02:	370c      	adds	r7, #12
 8000c04:	46bd      	mov	sp, r7
 8000c06:	f85d 7b04 	ldr.w	r7, [sp], #4
 8000c0a:	4770      	bx	lr
 8000c0c:	40021000 	.word	0x40021000

08000c10 <LL_RCC_SetAPB2Prescaler>:
  *         @arg @ref LL_RCC_APB2_DIV_8
  *         @arg @ref LL_RCC_APB2_DIV_16
  * @retval None
  */
__STATIC_INLINE void LL_RCC_SetAPB2Prescaler(uint32_t Prescaler)
{
 8000c10:	b480      	push	{r7}
 8000c12:	b083      	sub	sp, #12
 8000c14:	af00      	add	r7, sp, #0
 8000c16:	6078      	str	r0, [r7, #4]
  MODIFY_REG(RCC->CFGR, RCC_CFGR_PPRE2, Prescaler);
 8000c18:	4b06      	ldr	r3, [pc, #24]	@ (8000c34 <LL_RCC_SetAPB2Prescaler+0x24>)
 8000c1a:	689b      	ldr	r3, [r3, #8]
 8000c1c:	f423 5260 	bic.w	r2, r3, #14336	@ 0x3800
 8000c20:	4904      	ldr	r1, [pc, #16]	@ (8000c34 <LL_RCC_SetAPB2Prescaler+0x24>)
 8000c22:	687b      	ldr	r3, [r7, #4]
 8000c24:	4313      	orrs	r3, r2
 8000c26:	608b      	str	r3, [r1, #8]
}
 8000c28:	bf00      	nop
 8000c2a:	370c      	adds	r7, #12
 8000c2c:	46bd      	mov	sp, r7
 8000c2e:	f85d 7b04 	ldr.w	r7, [sp], #4
 8000c32:	4770      	bx	lr
 8000c34:	40021000 	.word	0x40021000

08000c38 <LL_RCC_SetUSARTClockSource>:
  *         @arg @ref LL_RCC_USART3_CLKSOURCE_HSI
  *         @arg @ref LL_RCC_USART3_CLKSOURCE_LSE
  * @retval None
  */
__STATIC_INLINE void LL_RCC_SetUSARTClockSource(uint32_t USARTxSource)
{
 8000c38:	b480      	push	{r7}
 8000c3a:	b083      	sub	sp, #12
 8000c3c:	af00      	add	r7, sp, #0
 8000c3e:	6078      	str	r0, [r7, #4]
  MODIFY_REG(RCC->CCIPR, (USARTxSource >> 16U), (USARTxSource & 0x0000FFFFU));
 8000c40:	4b09      	ldr	r3, [pc, #36]	@ (8000c68 <LL_RCC_SetUSARTClockSource+0x30>)
 8000c42:	f8d3 2088 	ldr.w	r2, [r3, #136]	@ 0x88
 8000c46:	687b      	ldr	r3, [r7, #4]
 8000c48:	0c1b      	lsrs	r3, r3, #16
 8000c4a:	43db      	mvns	r3, r3
 8000c4c:	401a      	ands	r2, r3
 8000c4e:	687b      	ldr	r3, [r7, #4]
 8000c50:	b29b      	uxth	r3, r3
 8000c52:	4905      	ldr	r1, [pc, #20]	@ (8000c68 <LL_RCC_SetUSARTClockSource+0x30>)
 8000c54:	4313      	orrs	r3, r2
 8000c56:	f8c1 3088 	str.w	r3, [r1, #136]	@ 0x88
}
 8000c5a:	bf00      	nop
 8000c5c:	370c      	adds	r7, #12
 8000c5e:	46bd      	mov	sp, r7
 8000c60:	f85d 7b04 	ldr.w	r7, [sp], #4
 8000c64:	4770      	bx	lr
 8000c66:	bf00      	nop
 8000c68:	40021000 	.word	0x40021000

08000c6c <LL_RCC_SetADCClockSource>:
  *
  *         (*) value not defined in all devices.
  * @retval None
  */
__STATIC_INLINE void LL_RCC_SetADCClockSource(uint32_t ADCxSource)
{
 8000c6c:	b480      	push	{r7}
 8000c6e:	b083      	sub	sp, #12
 8000c70:	af00      	add	r7, sp, #0
 8000c72:	6078      	str	r0, [r7, #4]
  MODIFY_REG(RCC->CCIPR, 3U << ((ADCxSource & 0x001F0000U) >> 16U), ((ADCxSource & 0x000000FFU) << ((ADCxSource & 0x001F0000U) >> 16U)));
 8000c74:	4b0e      	ldr	r3, [pc, #56]	@ (8000cb0 <LL_RCC_SetADCClockSource+0x44>)
 8000c76:	f8d3 2088 	ldr.w	r2, [r3, #136]	@ 0x88
 8000c7a:	687b      	ldr	r3, [r7, #4]
 8000c7c:	0c1b      	lsrs	r3, r3, #16
 8000c7e:	f003 031f 	and.w	r3, r3, #31
 8000c82:	2103      	movs	r1, #3
 8000c84:	fa01 f303 	lsl.w	r3, r1, r3
 8000c88:	43db      	mvns	r3, r3
 8000c8a:	401a      	ands	r2, r3
 8000c8c:	687b      	ldr	r3, [r7, #4]
 8000c8e:	b2d9      	uxtb	r1, r3
 8000c90:	687b      	ldr	r3, [r7, #4]
 8000c92:	0c1b      	lsrs	r3, r3, #16
 8000c94:	f003 031f 	and.w	r3, r3, #31
 8000c98:	fa01 f303 	lsl.w	r3, r1, r3
 8000c9c:	4904      	ldr	r1, [pc, #16]	@ (8000cb0 <LL_RCC_SetADCClockSource+0x44>)
 8000c9e:	4313      	orrs	r3, r2
 8000ca0:	f8c1 3088 	str.w	r3, [r1, #136]	@ 0x88
}
 8000ca4:	bf00      	nop
 8000ca6:	370c      	adds	r7, #12
 8000ca8:	46bd      	mov	sp, r7
 8000caa:	f85d 7b04 	ldr.w	r7, [sp], #4
 8000cae:	4770      	bx	lr
 8000cb0:	40021000 	.word	0x40021000

08000cb4 <LL_RCC_PLL_Enable>:
  * @brief  Enable PLL
  * @rmtoll CR           PLLON         LL_RCC_PLL_Enable
  * @retval None
  */
__STATIC_INLINE void LL_RCC_PLL_Enable(void)
{
 8000cb4:	b480      	push	{r7}
 8000cb6:	af00      	add	r7, sp, #0
  SET_BIT(RCC->CR, RCC_CR_PLLON);
 8000cb8:	4b05      	ldr	r3, [pc, #20]	@ (8000cd0 <LL_RCC_PLL_Enable+0x1c>)
 8000cba:	681b      	ldr	r3, [r3, #0]
 8000cbc:	4a04      	ldr	r2, [pc, #16]	@ (8000cd0 <LL_RCC_PLL_Enable+0x1c>)
 8000cbe:	f043 7380 	orr.w	r3, r3, #16777216	@ 0x1000000
 8000cc2:	6013      	str	r3, [r2, #0]
}
 8000cc4:	bf00      	nop
 8000cc6:	46bd      	mov	sp, r7
 8000cc8:	f85d 7b04 	ldr.w	r7, [sp], #4
 8000ccc:	4770      	bx	lr
 8000cce:	bf00      	nop
 8000cd0:	40021000 	.word	0x40021000

08000cd4 <LL_RCC_PLL_IsReady>:
  * @brief  Check if PLL Ready
  * @rmtoll CR           PLLRDY        LL_RCC_PLL_IsReady
  * @retval State of bit (1 or 0).
  */
__STATIC_INLINE uint32_t LL_RCC_PLL_IsReady(void)
{
 8000cd4:	b480      	push	{r7}
 8000cd6:	af00      	add	r7, sp, #0
  return ((READ_BIT(RCC->CR, RCC_CR_PLLRDY) == (RCC_CR_PLLRDY)) ? 1UL : 0UL);
 8000cd8:	4b07      	ldr	r3, [pc, #28]	@ (8000cf8 <LL_RCC_PLL_IsReady+0x24>)
 8000cda:	681b      	ldr	r3, [r3, #0]
 8000cdc:	f003 7300 	and.w	r3, r3, #33554432	@ 0x2000000
 8000ce0:	f1b3 7f00 	cmp.w	r3, #33554432	@ 0x2000000
 8000ce4:	d101      	bne.n	8000cea <LL_RCC_PLL_IsReady+0x16>
 8000ce6:	2301      	movs	r3, #1
 8000ce8:	e000      	b.n	8000cec <LL_RCC_PLL_IsReady+0x18>
 8000cea:	2300      	movs	r3, #0
}
 8000cec:	4618      	mov	r0, r3
 8000cee:	46bd      	mov	sp, r7
 8000cf0:	f85d 7b04 	ldr.w	r7, [sp], #4
 8000cf4:	4770      	bx	lr
 8000cf6:	bf00      	nop
 8000cf8:	40021000 	.word	0x40021000

08000cfc <LL_RCC_PLL_ConfigDomain_SYS>:
  *         @arg @ref LL_RCC_PLLR_DIV_6
  *         @arg @ref LL_RCC_PLLR_DIV_8
  * @retval None
  */
__STATIC_INLINE void LL_RCC_PLL_ConfigDomain_SYS(uint32_t Source, uint32_t PLLM, uint32_t PLLN, uint32_t PLLR)
{
 8000cfc:	b480      	push	{r7}
 8000cfe:	b085      	sub	sp, #20
 8000d00:	af00      	add	r7, sp, #0
 8000d02:	60f8      	str	r0, [r7, #12]
 8000d04:	60b9      	str	r1, [r7, #8]
 8000d06:	607a      	str	r2, [r7, #4]
 8000d08:	603b      	str	r3, [r7, #0]
  MODIFY_REG(RCC->PLLCFGR, RCC_PLLCFGR_PLLSRC | RCC_PLLCFGR_PLLM | RCC_PLLCFGR_PLLN | RCC_PLLCFGR_PLLR,
 8000d0a:	4b0a      	ldr	r3, [pc, #40]	@ (8000d34 <LL_RCC_PLL_ConfigDomain_SYS+0x38>)
 8000d0c:	68da      	ldr	r2, [r3, #12]
 8000d0e:	4b0a      	ldr	r3, [pc, #40]	@ (8000d38 <LL_RCC_PLL_ConfigDomain_SYS+0x3c>)
 8000d10:	4013      	ands	r3, r2
 8000d12:	68f9      	ldr	r1, [r7, #12]
 8000d14:	68ba      	ldr	r2, [r7, #8]
 8000d16:	4311      	orrs	r1, r2
 8000d18:	687a      	ldr	r2, [r7, #4]
 8000d1a:	0212      	lsls	r2, r2, #8
 8000d1c:	4311      	orrs	r1, r2
 8000d1e:	683a      	ldr	r2, [r7, #0]
 8000d20:	430a      	orrs	r2, r1
 8000d22:	4904      	ldr	r1, [pc, #16]	@ (8000d34 <LL_RCC_PLL_ConfigDomain_SYS+0x38>)
 8000d24:	4313      	orrs	r3, r2
 8000d26:	60cb      	str	r3, [r1, #12]
             Source | PLLM | (PLLN << RCC_PLLCFGR_PLLN_Pos) | PLLR);
}
 8000d28:	bf00      	nop
 8000d2a:	3714      	adds	r7, #20
 8000d2c:	46bd      	mov	sp, r7
 8000d2e:	f85d 7b04 	ldr.w	r7, [sp], #4
 8000d32:	4770      	bx	lr
 8000d34:	40021000 	.word	0x40021000
 8000d38:	f9ff800c 	.word	0xf9ff800c

08000d3c <LL_RCC_PLL_ConfigDomain_ADC>:
  *         @arg @ref LL_RCC_PLLP_DIV_30
  *         @arg @ref LL_RCC_PLLP_DIV_31
  * @retval None
  */
__STATIC_INLINE void LL_RCC_PLL_ConfigDomain_ADC(uint32_t Source, uint32_t PLLM, uint32_t PLLN, uint32_t PLLP)
{
 8000d3c:	b480      	push	{r7}
 8000d3e:	b085      	sub	sp, #20
 8000d40:	af00      	add	r7, sp, #0
 8000d42:	60f8      	str	r0, [r7, #12]
 8000d44:	60b9      	str	r1, [r7, #8]
 8000d46:	607a      	str	r2, [r7, #4]
 8000d48:	603b      	str	r3, [r7, #0]
  MODIFY_REG(RCC->PLLCFGR, RCC_PLLCFGR_PLLSRC | RCC_PLLCFGR_PLLM | RCC_PLLCFGR_PLLN | RCC_PLLCFGR_PLLPDIV,
 8000d4a:	4b0a      	ldr	r3, [pc, #40]	@ (8000d74 <LL_RCC_PLL_ConfigDomain_ADC+0x38>)
 8000d4c:	68da      	ldr	r2, [r3, #12]
 8000d4e:	4b0a      	ldr	r3, [pc, #40]	@ (8000d78 <LL_RCC_PLL_ConfigDomain_ADC+0x3c>)
 8000d50:	4013      	ands	r3, r2
 8000d52:	68f9      	ldr	r1, [r7, #12]
 8000d54:	68ba      	ldr	r2, [r7, #8]
 8000d56:	4311      	orrs	r1, r2
 8000d58:	687a      	ldr	r2, [r7, #4]
 8000d5a:	0212      	lsls	r2, r2, #8
 8000d5c:	4311      	orrs	r1, r2
 8000d5e:	683a      	ldr	r2, [r7, #0]
 8000d60:	430a      	orrs	r2, r1
 8000d62:	4904      	ldr	r1, [pc, #16]	@ (8000d74 <LL_RCC_PLL_ConfigDomain_ADC+0x38>)
 8000d64:	4313      	orrs	r3, r2
 8000d66:	60cb      	str	r3, [r1, #12]
             Source | PLLM | (PLLN << RCC_PLLCFGR_PLLN_Pos) | PLLP);
}
 8000d68:	bf00      	nop
 8000d6a:	3714      	adds	r7, #20
 8000d6c:	46bd      	mov	sp, r7
 8000d6e:	f85d 7b04 	ldr.w	r7, [sp], #4
 8000d72:	4770      	bx	lr
 8000d74:	40021000 	.word	0x40021000
 8000d78:	07ff800c 	.word	0x07ff800c

08000d7c <LL_RCC_PLL_EnableDomain_ADC>:
  * @brief  Enable PLL output mapped on ADC domain clock
  * @rmtoll PLLCFGR      PLLPEN        LL_RCC_PLL_EnableDomain_ADC
  * @retval None
  */
__STATIC_INLINE void LL_RCC_PLL_EnableDomain_ADC(void)
{
 8000d7c:	b480      	push	{r7}
 8000d7e:	af00      	add	r7, sp, #0
  SET_BIT(RCC->PLLCFGR, RCC_PLLCFGR_PLLPEN);
 8000d80:	4b05      	ldr	r3, [pc, #20]	@ (8000d98 <LL_RCC_PLL_EnableDomain_ADC+0x1c>)
 8000d82:	68db      	ldr	r3, [r3, #12]
 8000d84:	4a04      	ldr	r2, [pc, #16]	@ (8000d98 <LL_RCC_PLL_EnableDomain_ADC+0x1c>)
 8000d86:	f443 3380 	orr.w	r3, r3, #65536	@ 0x10000
 8000d8a:	60d3      	str	r3, [r2, #12]
}
 8000d8c:	bf00      	nop
 8000d8e:	46bd      	mov	sp, r7
 8000d90:	f85d 7b04 	ldr.w	r7, [sp], #4
 8000d94:	4770      	bx	lr
 8000d96:	bf00      	nop
 8000d98:	40021000 	.word	0x40021000

08000d9c <LL_RCC_PLL_EnableDomain_SYS>:
  * @brief  Enable PLL output mapped on SYSCLK domain
  * @rmtoll PLLCFGR      PLLREN        LL_RCC_PLL_EnableDomain_SYS
  * @retval None
  */
__STATIC_INLINE void LL_RCC_PLL_EnableDomain_SYS(void)
{
 8000d9c:	b480      	push	{r7}
 8000d9e:	af00      	add	r7, sp, #0
  SET_BIT(RCC->PLLCFGR, RCC_PLLCFGR_PLLREN);
 8000da0:	4b05      	ldr	r3, [pc, #20]	@ (8000db8 <LL_RCC_PLL_EnableDomain_SYS+0x1c>)
 8000da2:	68db      	ldr	r3, [r3, #12]
 8000da4:	4a04      	ldr	r2, [pc, #16]	@ (8000db8 <LL_RCC_PLL_EnableDomain_SYS+0x1c>)
 8000da6:	f043 7380 	orr.w	r3, r3, #16777216	@ 0x1000000
 8000daa:	60d3      	str	r3, [r2, #12]
}
 8000dac:	bf00      	nop
 8000dae:	46bd      	mov	sp, r7
 8000db0:	f85d 7b04 	ldr.w	r7, [sp], #4
 8000db4:	4770      	bx	lr
 8000db6:	bf00      	nop
 8000db8:	40021000 	.word	0x40021000

08000dbc <LL_AHB1_GRP1_EnableClock>:
  *         @arg @ref LL_AHB1_GRP1_PERIPH_FLASH
  *         @arg @ref LL_AHB1_GRP1_PERIPH_CRC
  * @retval None
  */
__STATIC_INLINE void LL_AHB1_GRP1_EnableClock(uint32_t Periphs)
{
 8000dbc:	b480      	push	{r7}
 8000dbe:	b085      	sub	sp, #20
 8000dc0:	af00      	add	r7, sp, #0
 8000dc2:	6078      	str	r0, [r7, #4]
  __IO uint32_t tmpreg;
  SET_BIT(RCC->AHB1ENR, Periphs);
 8000dc4:	4b08      	ldr	r3, [pc, #32]	@ (8000de8 <LL_AHB1_GRP1_EnableClock+0x2c>)
 8000dc6:	6c9a      	ldr	r2, [r3, #72]	@ 0x48
 8000dc8:	4907      	ldr	r1, [pc, #28]	@ (8000de8 <LL_AHB1_GRP1_EnableClock+0x2c>)
 8000dca:	687b      	ldr	r3, [r7, #4]
 8000dcc:	4313      	orrs	r3, r2
 8000dce:	648b      	str	r3, [r1, #72]	@ 0x48
  /* Delay after an RCC peripheral clock enabling */
  tmpreg = READ_BIT(RCC->AHB1ENR, Periphs);
 8000dd0:	4b05      	ldr	r3, [pc, #20]	@ (8000de8 <LL_AHB1_GRP1_EnableClock+0x2c>)
 8000dd2:	6c9a      	ldr	r2, [r3, #72]	@ 0x48
 8000dd4:	687b      	ldr	r3, [r7, #4]
 8000dd6:	4013      	ands	r3, r2
 8000dd8:	60fb      	str	r3, [r7, #12]
  (void)tmpreg;
 8000dda:	68fb      	ldr	r3, [r7, #12]
}
 8000ddc:	bf00      	nop
 8000dde:	3714      	adds	r7, #20
 8000de0:	46bd      	mov	sp, r7
 8000de2:	f85d 7b04 	ldr.w	r7, [sp], #4
 8000de6:	4770      	bx	lr
 8000de8:	40021000 	.word	0x40021000

08000dec <LL_AHB2_GRP1_EnableClock>:
  *
  *         (*) value not defined in all devices.
  * @retval None
  */
__STATIC_INLINE void LL_AHB2_GRP1_EnableClock(uint32_t Periphs)
{
 8000dec:	b480      	push	{r7}
 8000dee:	b085      	sub	sp, #20
 8000df0:	af00      	add	r7, sp, #0
 8000df2:	6078      	str	r0, [r7, #4]
  __IO uint32_t tmpreg;
  SET_BIT(RCC->AHB2ENR, Periphs);
 8000df4:	4b08      	ldr	r3, [pc, #32]	@ (8000e18 <LL_AHB2_GRP1_EnableClock+0x2c>)
 8000df6:	6cda      	ldr	r2, [r3, #76]	@ 0x4c
 8000df8:	4907      	ldr	r1, [pc, #28]	@ (8000e18 <LL_AHB2_GRP1_EnableClock+0x2c>)
 8000dfa:	687b      	ldr	r3, [r7, #4]
 8000dfc:	4313      	orrs	r3, r2
 8000dfe:	64cb      	str	r3, [r1, #76]	@ 0x4c
  /* Delay after an RCC peripheral clock enabling */
  tmpreg = READ_BIT(RCC->AHB2ENR, Periphs);
 8000e00:	4b05      	ldr	r3, [pc, #20]	@ (8000e18 <LL_AHB2_GRP1_EnableClock+0x2c>)
 8000e02:	6cda      	ldr	r2, [r3, #76]	@ 0x4c
 8000e04:	687b      	ldr	r3, [r7, #4]
 8000e06:	4013      	ands	r3, r2
 8000e08:	60fb      	str	r3, [r7, #12]
  (void)tmpreg;
 8000e0a:	68fb      	ldr	r3, [r7, #12]
}
 8000e0c:	bf00      	nop
 8000e0e:	3714      	adds	r7, #20
 8000e10:	46bd      	mov	sp, r7
 8000e12:	f85d 7b04 	ldr.w	r7, [sp], #4
 8000e16:	4770      	bx	lr
 8000e18:	40021000 	.word	0x40021000

08000e1c <LL_APB1_GRP1_EnableClock>:
  *
  *         (*) value not defined in all devices.
  * @retval None
  */
__STATIC_INLINE void LL_APB1_GRP1_EnableClock(uint32_t Periphs)
{
 8000e1c:	b480      	push	{r7}
 8000e1e:	b085      	sub	sp, #20
 8000e20:	af00      	add	r7, sp, #0
 8000e22:	6078      	str	r0, [r7, #4]
  __IO uint32_t tmpreg;
  SET_BIT(RCC->APB1ENR1, Periphs);
 8000e24:	4b08      	ldr	r3, [pc, #32]	@ (8000e48 <LL_APB1_GRP1_EnableClock+0x2c>)
 8000e26:	6d9a      	ldr	r2, [r3, #88]	@ 0x58
 8000e28:	4907      	ldr	r1, [pc, #28]	@ (8000e48 <LL_APB1_GRP1_EnableClock+0x2c>)
 8000e2a:	687b      	ldr	r3, [r7, #4]
 8000e2c:	4313      	orrs	r3, r2
 8000e2e:	658b      	str	r3, [r1, #88]	@ 0x58
  /* Delay after an RCC peripheral clock enabling */
  tmpreg = READ_BIT(RCC->APB1ENR1, Periphs);
 8000e30:	4b05      	ldr	r3, [pc, #20]	@ (8000e48 <LL_APB1_GRP1_EnableClock+0x2c>)
 8000e32:	6d9a      	ldr	r2, [r3, #88]	@ 0x58
 8000e34:	687b      	ldr	r3, [r7, #4]
 8000e36:	4013      	ands	r3, r2
 8000e38:	60fb      	str	r3, [r7, #12]
  (void)tmpreg;
 8000e3a:	68fb      	ldr	r3, [r7, #12]
}
 8000e3c:	bf00      	nop
 8000e3e:	3714      	adds	r7, #20
 8000e40:	46bd      	mov	sp, r7
 8000e42:	f85d 7b04 	ldr.w	r7, [sp], #4
 8000e46:	4770      	bx	lr
 8000e48:	40021000 	.word	0x40021000

08000e4c <LL_APB2_GRP1_EnableClock>:
  *
  *         (*) value not defined in all devices.
  * @retval None
  */
__STATIC_INLINE void LL_APB2_GRP1_EnableClock(uint32_t Periphs)
{
 8000e4c:	b480      	push	{r7}
 8000e4e:	b085      	sub	sp, #20
 8000e50:	af00      	add	r7, sp, #0
 8000e52:	6078      	str	r0, [r7, #4]
  __IO uint32_t tmpreg;
  SET_BIT(RCC->APB2ENR, Periphs);
 8000e54:	4b08      	ldr	r3, [pc, #32]	@ (8000e78 <LL_APB2_GRP1_EnableClock+0x2c>)
 8000e56:	6e1a      	ldr	r2, [r3, #96]	@ 0x60
 8000e58:	4907      	ldr	r1, [pc, #28]	@ (8000e78 <LL_APB2_GRP1_EnableClock+0x2c>)
 8000e5a:	687b      	ldr	r3, [r7, #4]
 8000e5c:	4313      	orrs	r3, r2
 8000e5e:	660b      	str	r3, [r1, #96]	@ 0x60
  /* Delay after an RCC peripheral clock enabling */
  tmpreg = READ_BIT(RCC->APB2ENR, Periphs);
 8000e60:	4b05      	ldr	r3, [pc, #20]	@ (8000e78 <LL_APB2_GRP1_EnableClock+0x2c>)
 8000e62:	6e1a      	ldr	r2, [r3, #96]	@ 0x60
 8000e64:	687b      	ldr	r3, [r7, #4]
 8000e66:	4013      	ands	r3, r2
 8000e68:	60fb      	str	r3, [r7, #12]
  (void)tmpreg;
 8000e6a:	68fb      	ldr	r3, [r7, #12]
}
 8000e6c:	bf00      	nop
 8000e6e:	3714      	adds	r7, #20
 8000e70:	46bd      	mov	sp, r7
 8000e72:	f85d 7b04 	ldr.w	r7, [sp], #4
 8000e76:	4770      	bx	lr
 8000e78:	40021000 	.word	0x40021000

08000e7c <LL_FLASH_SetLatency>:
  *
  *         (*) value not defined in all devices.
  * @retval None
  */
__STATIC_INLINE void LL_FLASH_SetLatency(uint32_t Latency)
{
 8000e7c:	b480      	push	{r7}
 8000e7e:	b083      	sub	sp, #12
 8000e80:	af00      	add	r7, sp, #0
 8000e82:	6078      	str	r0, [r7, #4]
  MODIFY_REG(FLASH->ACR, FLASH_ACR_LATENCY, Latency);
 8000e84:	4b06      	ldr	r3, [pc, #24]	@ (8000ea0 <LL_FLASH_SetLatency+0x24>)
 8000e86:	681b      	ldr	r3, [r3, #0]
 8000e88:	f023 020f 	bic.w	r2, r3, #15
 8000e8c:	4904      	ldr	r1, [pc, #16]	@ (8000ea0 <LL_FLASH_SetLatency+0x24>)
 8000e8e:	687b      	ldr	r3, [r7, #4]
 8000e90:	4313      	orrs	r3, r2
 8000e92:	600b      	str	r3, [r1, #0]
}
 8000e94:	bf00      	nop
 8000e96:	370c      	adds	r7, #12
 8000e98:	46bd      	mov	sp, r7
 8000e9a:	f85d 7b04 	ldr.w	r7, [sp], #4
 8000e9e:	4770      	bx	lr
 8000ea0:	40022000 	.word	0x40022000

08000ea4 <LL_FLASH_GetLatency>:
  *         @arg @ref LL_FLASH_LATENCY_15 (*)
  *
  *         (*) value not defined in all devices.
  */
__STATIC_INLINE uint32_t LL_FLASH_GetLatency(void)
{
 8000ea4:	b480      	push	{r7}
 8000ea6:	af00      	add	r7, sp, #0
  return (uint32_t)(READ_BIT(FLASH->ACR, FLASH_ACR_LATENCY));
 8000ea8:	4b04      	ldr	r3, [pc, #16]	@ (8000ebc <LL_FLASH_GetLatency+0x18>)
 8000eaa:	681b      	ldr	r3, [r3, #0]
 8000eac:	f003 030f 	and.w	r3, r3, #15
}
 8000eb0:	4618      	mov	r0, r3
 8000eb2:	46bd      	mov	sp, r7
 8000eb4:	f85d 7b04 	ldr.w	r7, [sp], #4
 8000eb8:	4770      	bx	lr
 8000eba:	bf00      	nop
 8000ebc:	40022000 	.word	0x40022000

08000ec0 <LL_PWR_SetRegulVoltageScaling>:
  *         @arg @ref LL_PWR_REGU_VOLTAGE_SCALE1
  *         @arg @ref LL_PWR_REGU_VOLTAGE_SCALE2
  * @retval None
  */
__STATIC_INLINE void LL_PWR_SetRegulVoltageScaling(uint32_t VoltageScaling)
{
 8000ec0:	b480      	push	{r7}
 8000ec2:	b083      	sub	sp, #12
 8000ec4:	af00      	add	r7, sp, #0
 8000ec6:	6078      	str	r0, [r7, #4]
  MODIFY_REG(PWR->CR1, PWR_CR1_VOS, VoltageScaling);
 8000ec8:	4b06      	ldr	r3, [pc, #24]	@ (8000ee4 <LL_PWR_SetRegulVoltageScaling+0x24>)
 8000eca:	681b      	ldr	r3, [r3, #0]
 8000ecc:	f423 62c0 	bic.w	r2, r3, #1536	@ 0x600
 8000ed0:	4904      	ldr	r1, [pc, #16]	@ (8000ee4 <LL_PWR_SetRegulVoltageScaling+0x24>)
 8000ed2:	687b      	ldr	r3, [r7, #4]
 8000ed4:	4313      	orrs	r3, r2
 8000ed6:	600b      	str	r3, [r1, #0]
}
 8000ed8:	bf00      	nop
 8000eda:	370c      	adds	r7, #12
 8000edc:	46bd      	mov	sp, r7
 8000ede:	f85d 7b04 	ldr.w	r7, [sp], #4
 8000ee2:	4770      	bx	lr
 8000ee4:	40007000 	.word	0x40007000

08000ee8 <LL_PWR_DisableUCPDDeadBattery>:
  *         control to the UCPD (which should therefore be initialized before doing the disable).
  * @rmtoll CR3          UCPD_DBDIS           LL_PWR_DisableUCPDDeadBattery
  * @retval None
  */
__STATIC_INLINE void LL_PWR_DisableUCPDDeadBattery(void)
{
 8000ee8:	b480      	push	{r7}
 8000eea:	af00      	add	r7, sp, #0
  SET_BIT(PWR->CR3, PWR_CR3_UCPD_DBDIS);
 8000eec:	4b05      	ldr	r3, [pc, #20]	@ (8000f04 <LL_PWR_DisableUCPDDeadBattery+0x1c>)
 8000eee:	689b      	ldr	r3, [r3, #8]
 8000ef0:	4a04      	ldr	r2, [pc, #16]	@ (8000f04 <LL_PWR_DisableUCPDDeadBattery+0x1c>)
 8000ef2:	f443 4380 	orr.w	r3, r3, #16384	@ 0x4000
 8000ef6:	6093      	str	r3, [r2, #8]
}
 8000ef8:	bf00      	nop
 8000efa:	46bd      	mov	sp, r7
 8000efc:	f85d 7b04 	ldr.w	r7, [sp], #4
 8000f00:	4770      	bx	lr
 8000f02:	bf00      	nop
 8000f04:	40007000 	.word	0x40007000

08000f08 <LL_TIM_DisableARRPreload>:
  * @rmtoll CR1          ARPE          LL_TIM_DisableARRPreload
  * @param  TIMx Timer instance
  * @retval None
  */
__STATIC_INLINE void LL_TIM_DisableARRPreload(TIM_TypeDef *TIMx)
{
 8000f08:	b480      	push	{r7}
 8000f0a:	b083      	sub	sp, #12
 8000f0c:	af00      	add	r7, sp, #0
 8000f0e:	6078      	str	r0, [r7, #4]
  CLEAR_BIT(TIMx->CR1, TIM_CR1_ARPE);
 8000f10:	687b      	ldr	r3, [r7, #4]
 8000f12:	681b      	ldr	r3, [r3, #0]
 8000f14:	f023 0280 	bic.w	r2, r3, #128	@ 0x80
 8000f18:	687b      	ldr	r3, [r7, #4]
 8000f1a:	601a      	str	r2, [r3, #0]
}
 8000f1c:	bf00      	nop
 8000f1e:	370c      	adds	r7, #12
 8000f20:	46bd      	mov	sp, r7
 8000f22:	f85d 7b04 	ldr.w	r7, [sp], #4
 8000f26:	4770      	bx	lr

08000f28 <LL_TIM_SetClockSource>:
  *         @arg @ref LL_TIM_CLOCKSOURCE_EXT_MODE1
  *         @arg @ref LL_TIM_CLOCKSOURCE_EXT_MODE2
  * @retval None
  */
__STATIC_INLINE void LL_TIM_SetClockSource(TIM_TypeDef *TIMx, uint32_t ClockSource)
{
 8000f28:	b480      	push	{r7}
 8000f2a:	b083      	sub	sp, #12
 8000f2c:	af00      	add	r7, sp, #0
 8000f2e:	6078      	str	r0, [r7, #4]
 8000f30:	6039      	str	r1, [r7, #0]
  MODIFY_REG(TIMx->SMCR, TIM_SMCR_SMS | TIM_SMCR_ECE, ClockSource);
 8000f32:	687b      	ldr	r3, [r7, #4]
 8000f34:	689b      	ldr	r3, [r3, #8]
 8000f36:	f423 33a0 	bic.w	r3, r3, #81920	@ 0x14000
 8000f3a:	f023 0307 	bic.w	r3, r3, #7
 8000f3e:	683a      	ldr	r2, [r7, #0]
 8000f40:	431a      	orrs	r2, r3
 8000f42:	687b      	ldr	r3, [r7, #4]
 8000f44:	609a      	str	r2, [r3, #8]
}
 8000f46:	bf00      	nop
 8000f48:	370c      	adds	r7, #12
 8000f4a:	46bd      	mov	sp, r7
 8000f4c:	f85d 7b04 	ldr.w	r7, [sp], #4
 8000f50:	4770      	bx	lr

08000f52 <LL_TIM_SetTriggerOutput>:
  *         @arg @ref LL_TIM_TRGO_OC4REF
  *         @arg @ref LL_TIM_TRGO_ENCODERCLK
  * @retval None
  */
__STATIC_INLINE void LL_TIM_SetTriggerOutput(TIM_TypeDef *TIMx, uint32_t TimerSynchronization)
{
 8000f52:	b480      	push	{r7}
 8000f54:	b083      	sub	sp, #12
 8000f56:	af00      	add	r7, sp, #0
 8000f58:	6078      	str	r0, [r7, #4]
 8000f5a:	6039      	str	r1, [r7, #0]
  MODIFY_REG(TIMx->CR2, TIM_CR2_MMS, TimerSynchronization);
 8000f5c:	687b      	ldr	r3, [r7, #4]
 8000f5e:	685b      	ldr	r3, [r3, #4]
 8000f60:	f023 7300 	bic.w	r3, r3, #33554432	@ 0x2000000
 8000f64:	f023 0370 	bic.w	r3, r3, #112	@ 0x70
 8000f68:	683a      	ldr	r2, [r7, #0]
 8000f6a:	431a      	orrs	r2, r3
 8000f6c:	687b      	ldr	r3, [r7, #4]
 8000f6e:	605a      	str	r2, [r3, #4]
}
 8000f70:	bf00      	nop
 8000f72:	370c      	adds	r7, #12
 8000f74:	46bd      	mov	sp, r7
 8000f76:	f85d 7b04 	ldr.w	r7, [sp], #4
 8000f7a:	4770      	bx	lr

08000f7c <LL_TIM_DisableMasterSlaveMode>:
  * @rmtoll SMCR         MSM           LL_TIM_DisableMasterSlaveMode
  * @param  TIMx Timer instance
  * @retval None
  */
__STATIC_INLINE void LL_TIM_DisableMasterSlaveMode(TIM_TypeDef *TIMx)
{
 8000f7c:	b480      	push	{r7}
 8000f7e:	b083      	sub	sp, #12
 8000f80:	af00      	add	r7, sp, #0
 8000f82:	6078      	str	r0, [r7, #4]
  CLEAR_BIT(TIMx->SMCR, TIM_SMCR_MSM);
 8000f84:	687b      	ldr	r3, [r7, #4]
 8000f86:	689b      	ldr	r3, [r3, #8]
 8000f88:	f023 0280 	bic.w	r2, r3, #128	@ 0x80
 8000f8c:	687b      	ldr	r3, [r7, #4]
 8000f8e:	609a      	str	r2, [r3, #8]
}
 8000f90:	bf00      	nop
 8000f92:	370c      	adds	r7, #12
 8000f94:	46bd      	mov	sp, r7
 8000f96:	f85d 7b04 	ldr.w	r7, [sp], #4
 8000f9a:	4770      	bx	lr

08000f9c <LL_USART_Enable>:
  * @rmtoll CR1          UE            LL_USART_Enable
  * @param  USARTx USART Instance
  * @retval None
  */
__STATIC_INLINE void LL_USART_Enable(USART_TypeDef *USARTx)
{
 8000f9c:	b480      	push	{r7}
 8000f9e:	b083      	sub	sp, #12
 8000fa0:	af00      	add	r7, sp, #0
 8000fa2:	6078      	str	r0, [r7, #4]
  SET_BIT(USARTx->CR1, USART_CR1_UE);
 8000fa4:	687b      	ldr	r3, [r7, #4]
 8000fa6:	681b      	ldr	r3, [r3, #0]
 8000fa8:	f043 0201 	orr.w	r2, r3, #1
 8000fac:	687b      	ldr	r3, [r7, #4]
 8000fae:	601a      	str	r2, [r3, #0]
}
 8000fb0:	bf00      	nop
 8000fb2:	370c      	adds	r7, #12
 8000fb4:	46bd      	mov	sp, r7
 8000fb6:	f85d 7b04 	ldr.w	r7, [sp], #4
 8000fba:	4770      	bx	lr

08000fbc <LL_USART_DisableFIFO>:
  * @rmtoll CR1          FIFOEN        LL_USART_DisableFIFO
  * @param  USARTx USART Instance
  * @retval None
  */
__STATIC_INLINE void LL_USART_DisableFIFO(USART_TypeDef *USARTx)
{
 8000fbc:	b480      	push	{r7}
 8000fbe:	b083      	sub	sp, #12
 8000fc0:	af00      	add	r7, sp, #0
 8000fc2:	6078      	str	r0, [r7, #4]
  CLEAR_BIT(USARTx->CR1, USART_CR1_FIFOEN);
 8000fc4:	687b      	ldr	r3, [r7, #4]
 8000fc6:	681b      	ldr	r3, [r3, #0]
 8000fc8:	f023 5200 	bic.w	r2, r3, #536870912	@ 0x20000000
 8000fcc:	687b      	ldr	r3, [r7, #4]
 8000fce:	601a      	str	r2, [r3, #0]
}
 8000fd0:	bf00      	nop
 8000fd2:	370c      	adds	r7, #12
 8000fd4:	46bd      	mov	sp, r7
 8000fd6:	f85d 7b04 	ldr.w	r7, [sp], #4
 8000fda:	4770      	bx	lr

08000fdc <LL_USART_SetTXFIFOThreshold>:
  *         @arg @ref LL_USART_FIFOTHRESHOLD_7_8
  *         @arg @ref LL_USART_FIFOTHRESHOLD_8_8
  * @retval None
  */
__STATIC_INLINE void LL_USART_SetTXFIFOThreshold(USART_TypeDef *USARTx, uint32_t Threshold)
{
 8000fdc:	b480      	push	{r7}
 8000fde:	b089      	sub	sp, #36	@ 0x24
 8000fe0:	af00      	add	r7, sp, #0
 8000fe2:	6078      	str	r0, [r7, #4]
 8000fe4:	6039      	str	r1, [r7, #0]
  ATOMIC_MODIFY_REG(USARTx->CR3, USART_CR3_TXFTCFG, Threshold << USART_CR3_TXFTCFG_Pos);
 8000fe6:	687b      	ldr	r3, [r7, #4]
 8000fe8:	3308      	adds	r3, #8
 8000fea:	60fb      	str	r3, [r7, #12]
 */
__STATIC_FORCEINLINE uint32_t __LDREXW(volatile uint32_t *addr)
{
    uint32_t result;

   __ASM volatile ("ldrex %0, %1" : "=r" (result) : "Q" (*addr) );
 8000fec:	68fb      	ldr	r3, [r7, #12]
 8000fee:	e853 3f00 	ldrex	r3, [r3]
 8000ff2:	60bb      	str	r3, [r7, #8]
   return(result);
 8000ff4:	68bb      	ldr	r3, [r7, #8]
 8000ff6:	f023 4260 	bic.w	r2, r3, #3758096384	@ 0xe0000000
 8000ffa:	683b      	ldr	r3, [r7, #0]
 8000ffc:	075b      	lsls	r3, r3, #29
 8000ffe:	4313      	orrs	r3, r2
 8001000:	61fb      	str	r3, [r7, #28]
 8001002:	687b      	ldr	r3, [r7, #4]
 8001004:	3308      	adds	r3, #8
 8001006:	69fa      	ldr	r2, [r7, #28]
 8001008:	61ba      	str	r2, [r7, #24]
 800100a:	617b      	str	r3, [r7, #20]
 */
__STATIC_FORCEINLINE uint32_t __STREXW(uint32_t value, volatile uint32_t *addr)
{
   uint32_t result;

   __ASM volatile ("strex %0, %2, %1" : "=&r" (result), "=Q" (*addr) : "r" (value) );
 800100c:	6979      	ldr	r1, [r7, #20]
 800100e:	69ba      	ldr	r2, [r7, #24]
 8001010:	e841 2300 	strex	r3, r2, [r1]
 8001014:	613b      	str	r3, [r7, #16]
   return(result);
 8001016:	693b      	ldr	r3, [r7, #16]
 8001018:	2b00      	cmp	r3, #0
 800101a:	d1e4      	bne.n	8000fe6 <LL_USART_SetTXFIFOThreshold+0xa>
}
 800101c:	bf00      	nop
 800101e:	bf00      	nop
 8001020:	3724      	adds	r7, #36	@ 0x24
 8001022:	46bd      	mov	sp, r7
 8001024:	f85d 7b04 	ldr.w	r7, [sp], #4
 8001028:	4770      	bx	lr

0800102a <LL_USART_SetRXFIFOThreshold>:
  *         @arg @ref LL_USART_FIFOTHRESHOLD_7_8
  *         @arg @ref LL_USART_FIFOTHRESHOLD_8_8
  * @retval None
  */
__STATIC_INLINE void LL_USART_SetRXFIFOThreshold(USART_TypeDef *USARTx, uint32_t Threshold)
{
 800102a:	b480      	push	{r7}
 800102c:	b089      	sub	sp, #36	@ 0x24
 800102e:	af00      	add	r7, sp, #0
 8001030:	6078      	str	r0, [r7, #4]
 8001032:	6039      	str	r1, [r7, #0]
  ATOMIC_MODIFY_REG(USARTx->CR3, USART_CR3_RXFTCFG, Threshold << USART_CR3_RXFTCFG_Pos);
 8001034:	687b      	ldr	r3, [r7, #4]
 8001036:	3308      	adds	r3, #8
 8001038:	60fb      	str	r3, [r7, #12]
   __ASM volatile ("ldrex %0, %1" : "=r" (result) : "Q" (*addr) );
 800103a:	68fb      	ldr	r3, [r7, #12]
 800103c:	e853 3f00 	ldrex	r3, [r3]
 8001040:	60bb      	str	r3, [r7, #8]
   return(result);
 8001042:	68bb      	ldr	r3, [r7, #8]
 8001044:	f023 6260 	bic.w	r2, r3, #234881024	@ 0xe000000
 8001048:	683b      	ldr	r3, [r7, #0]
 800104a:	065b      	lsls	r3, r3, #25
 800104c:	4313      	orrs	r3, r2
 800104e:	61fb      	str	r3, [r7, #28]
 8001050:	687b      	ldr	r3, [r7, #4]
 8001052:	3308      	adds	r3, #8
 8001054:	69fa      	ldr	r2, [r7, #28]
 8001056:	61ba      	str	r2, [r7, #24]
 8001058:	617b      	str	r3, [r7, #20]
   __ASM volatile ("strex %0, %2, %1" : "=&r" (result), "=Q" (*addr) : "r" (value) );
 800105a:	6979      	ldr	r1, [r7, #20]
 800105c:	69ba      	ldr	r2, [r7, #24]
 800105e:	e841 2300 	strex	r3, r2, [r1]
 8001062:	613b      	str	r3, [r7, #16]
   return(result);
 8001064:	693b      	ldr	r3, [r7, #16]
 8001066:	2b00      	cmp	r3, #0
 8001068:	d1e4      	bne.n	8001034 <LL_USART_SetRXFIFOThreshold+0xa>
}
 800106a:	bf00      	nop
 800106c:	bf00      	nop
 800106e:	3724      	adds	r7, #36	@ 0x24
 8001070:	46bd      	mov	sp, r7
 8001072:	f85d 7b04 	ldr.w	r7, [sp], #4
 8001076:	4770      	bx	lr

08001078 <LL_USART_ConfigAsyncMode>:
  *         CR3          HDSEL         LL_USART_ConfigAsyncMode
  * @param  USARTx USART Instance
  * @retval None
  */
__STATIC_INLINE void LL_USART_ConfigAsyncMode(USART_TypeDef *USARTx)
{
 8001078:	b480      	push	{r7}
 800107a:	b083      	sub	sp, #12
 800107c:	af00      	add	r7, sp, #0
 800107e:	6078      	str	r0, [r7, #4]
  /* In Asynchronous mode, the following bits must be kept cleared:
  - LINEN, CLKEN bits in the USART_CR2 register,
  - SCEN, IREN and HDSEL bits in the USART_CR3 register.
  */
  CLEAR_BIT(USARTx->CR2, (USART_CR2_LINEN | USART_CR2_CLKEN));
 8001080:	687b      	ldr	r3, [r7, #4]
 8001082:	685b      	ldr	r3, [r3, #4]
 8001084:	f423 4290 	bic.w	r2, r3, #18432	@ 0x4800
 8001088:	687b      	ldr	r3, [r7, #4]
 800108a:	605a      	str	r2, [r3, #4]
  CLEAR_BIT(USARTx->CR3, (USART_CR3_SCEN | USART_CR3_IREN | USART_CR3_HDSEL));
 800108c:	687b      	ldr	r3, [r7, #4]
 800108e:	689b      	ldr	r3, [r3, #8]
 8001090:	f023 022a 	bic.w	r2, r3, #42	@ 0x2a
 8001094:	687b      	ldr	r3, [r7, #4]
 8001096:	609a      	str	r2, [r3, #8]
}
 8001098:	bf00      	nop
 800109a:	370c      	adds	r7, #12
 800109c:	46bd      	mov	sp, r7
 800109e:	f85d 7b04 	ldr.w	r7, [sp], #4
 80010a2:	4770      	bx	lr

080010a4 <LL_USART_IsActiveFlag_TEACK>:
  * @rmtoll ISR          TEACK         LL_USART_IsActiveFlag_TEACK
  * @param  USARTx USART Instance
  * @retval State of bit (1 or 0).
  */
__STATIC_INLINE uint32_t LL_USART_IsActiveFlag_TEACK(const USART_TypeDef *USARTx)
{
 80010a4:	b480      	push	{r7}
 80010a6:	b083      	sub	sp, #12
 80010a8:	af00      	add	r7, sp, #0
 80010aa:	6078      	str	r0, [r7, #4]
  return ((READ_BIT(USARTx->ISR, USART_ISR_TEACK) == (USART_ISR_TEACK)) ? 1UL : 0UL);
 80010ac:	687b      	ldr	r3, [r7, #4]
 80010ae:	69db      	ldr	r3, [r3, #28]
 80010b0:	f403 1300 	and.w	r3, r3, #2097152	@ 0x200000
 80010b4:	f5b3 1f00 	cmp.w	r3, #2097152	@ 0x200000
 80010b8:	d101      	bne.n	80010be <LL_USART_IsActiveFlag_TEACK+0x1a>
 80010ba:	2301      	movs	r3, #1
 80010bc:	e000      	b.n	80010c0 <LL_USART_IsActiveFlag_TEACK+0x1c>
 80010be:	2300      	movs	r3, #0
}
 80010c0:	4618      	mov	r0, r3
 80010c2:	370c      	adds	r7, #12
 80010c4:	46bd      	mov	sp, r7
 80010c6:	f85d 7b04 	ldr.w	r7, [sp], #4
 80010ca:	4770      	bx	lr

080010cc <LL_USART_IsActiveFlag_REACK>:
  * @rmtoll ISR          REACK         LL_USART_IsActiveFlag_REACK
  * @param  USARTx USART Instance
  * @retval State of bit (1 or 0).
  */
__STATIC_INLINE uint32_t LL_USART_IsActiveFlag_REACK(const USART_TypeDef *USARTx)
{
 80010cc:	b480      	push	{r7}
 80010ce:	b083      	sub	sp, #12
 80010d0:	af00      	add	r7, sp, #0
 80010d2:	6078      	str	r0, [r7, #4]
  return ((READ_BIT(USARTx->ISR, USART_ISR_REACK) == (USART_ISR_REACK)) ? 1UL : 0UL);
 80010d4:	687b      	ldr	r3, [r7, #4]
 80010d6:	69db      	ldr	r3, [r3, #28]
 80010d8:	f403 0380 	and.w	r3, r3, #4194304	@ 0x400000
 80010dc:	f5b3 0f80 	cmp.w	r3, #4194304	@ 0x400000
 80010e0:	d101      	bne.n	80010e6 <LL_USART_IsActiveFlag_REACK+0x1a>
 80010e2:	2301      	movs	r3, #1
 80010e4:	e000      	b.n	80010e8 <LL_USART_IsActiveFlag_REACK+0x1c>
 80010e6:	2300      	movs	r3, #0
}
 80010e8:	4618      	mov	r0, r3
 80010ea:	370c      	adds	r7, #12
 80010ec:	46bd      	mov	sp, r7
 80010ee:	f85d 7b04 	ldr.w	r7, [sp], #4
 80010f2:	4770      	bx	lr

080010f4 <LL_GPIO_ResetOutputPin>:
  *         @arg @ref LL_GPIO_PIN_15
  *         @arg @ref LL_GPIO_PIN_ALL
  * @retval None
  */
__STATIC_INLINE void LL_GPIO_ResetOutputPin(GPIO_TypeDef *GPIOx, uint32_t PinMask)
{
 80010f4:	b480      	push	{r7}
 80010f6:	b083      	sub	sp, #12
 80010f8:	af00      	add	r7, sp, #0
 80010fa:	6078      	str	r0, [r7, #4]
 80010fc:	6039      	str	r1, [r7, #0]
  WRITE_REG(GPIOx->BRR, PinMask);
 80010fe:	687b      	ldr	r3, [r7, #4]
 8001100:	683a      	ldr	r2, [r7, #0]
 8001102:	629a      	str	r2, [r3, #40]	@ 0x28
}
 8001104:	bf00      	nop
 8001106:	370c      	adds	r7, #12
 8001108:	46bd      	mov	sp, r7
 800110a:	f85d 7b04 	ldr.w	r7, [sp], #4
 800110e:	4770      	bx	lr

08001110 <main>:
/**
  * @brief  The application entry point.
  * @retval int
  */
int main(void)
{
 8001110:	b580      	push	{r7, lr}
 8001112:	af00      	add	r7, sp, #0
  /* USER CODE END 1 */

  /* MCU Configuration--------------------------------------------------------*/

  /* Reset of all peripherals, Initializes the Flash interface and the Systick. */
  LL_APB2_GRP1_EnableClock(LL_APB2_GRP1_PERIPH_SYSCFG);
 8001114:	2001      	movs	r0, #1
 8001116:	f7ff fe99 	bl	8000e4c <LL_APB2_GRP1_EnableClock>
  LL_APB1_GRP1_EnableClock(LL_APB1_GRP1_PERIPH_PWR);
 800111a:	f04f 5080 	mov.w	r0, #268435456	@ 0x10000000
 800111e:	f7ff fe7d 	bl	8000e1c <LL_APB1_GRP1_EnableClock>

  /* System interrupt init*/
  NVIC_SetPriorityGrouping(NVIC_PRIORITYGROUP_4);
 8001122:	2003      	movs	r0, #3
 8001124:	f7ff fa46 	bl	80005b4 <__NVIC_SetPriorityGrouping>

  /* SysTick_IRQn interrupt configuration */
  NVIC_SetPriority(SysTick_IRQn, NVIC_EncodePriority(NVIC_GetPriorityGrouping(),15, 0));
 8001128:	f7ff fa68 	bl	80005fc <__NVIC_GetPriorityGrouping>
 800112c:	4603      	mov	r3, r0
 800112e:	2200      	movs	r2, #0
 8001130:	210f      	movs	r1, #15
 8001132:	4618      	mov	r0, r3
 8001134:	f7ff fab8 	bl	80006a8 <NVIC_EncodePriority>
 8001138:	4603      	mov	r3, r0
 800113a:	4619      	mov	r1, r3
 800113c:	f04f 30ff 	mov.w	r0, #4294967295
 8001140:	f7ff fa88 	bl	8000654 <__NVIC_SetPriority>

  /** Disable the internal Pull-Up in Dead Battery pins of UCPD peripheral
  */
  LL_PWR_DisableUCPDDeadBattery();
 8001144:	f7ff fed0 	bl	8000ee8 <LL_PWR_DisableUCPDDeadBattery>
  /* USER CODE BEGIN Init */

  /* USER CODE END Init */

  /* Configure the system clock */
  SystemClock_Config();
 8001148:	f000 f812 	bl	8001170 <SystemClock_Config>
  /* USER CODE BEGIN SysInit */

  /* USER CODE END SysInit */

  /* Initialize all configured peripherals */
  MX_GPIO_Init();
 800114c:	f000 fc38 	bl	80019c0 <MX_GPIO_Init>
  MX_DMA_Init();
 8001150:	f000 fbec 	bl	800192c <MX_DMA_Init>
  MX_ADC1_Init();
 8001154:	f000 f868 	bl	8001228 <MX_ADC1_Init>
  MX_ADC2_Init();
 8001158:	f000 f9a2 	bl	80014a0 <MX_ADC2_Init>
  MX_USART1_UART_Init();
 800115c:	f000 fb16 	bl	800178c <MX_USART1_UART_Init>
  MX_TIM2_Init();
 8001160:	f000 fa98 	bl	8001694 <MX_TIM2_Init>
  MX_TIM6_Init();
 8001164:	f000 fada 	bl	800171c <MX_TIM6_Init>

  /* Infinite loop */
  /* USER CODE BEGIN WHILE */
  while (1)
  {
	strobe_main();
 8001168:	f001 fbbc 	bl	80028e4 <strobe_main>
 800116c:	e7fc      	b.n	8001168 <main+0x58>
	...

08001170 <SystemClock_Config>:
/**
  * @brief System Clock Configuration
  * @retval None
  */
void SystemClock_Config(void)
{
 8001170:	b580      	push	{r7, lr}
 8001172:	b082      	sub	sp, #8
 8001174:	af00      	add	r7, sp, #0
  LL_FLASH_SetLatency(LL_FLASH_LATENCY_4);
 8001176:	2004      	movs	r0, #4
 8001178:	f7ff fe80 	bl	8000e7c <LL_FLASH_SetLatency>
  while(LL_FLASH_GetLatency() != LL_FLASH_LATENCY_4)
 800117c:	bf00      	nop
 800117e:	f7ff fe91 	bl	8000ea4 <LL_FLASH_GetLatency>
 8001182:	4603      	mov	r3, r0
 8001184:	2b04      	cmp	r3, #4
 8001186:	d1fa      	bne.n	800117e <SystemClock_Config+0xe>
  {
  }
  LL_PWR_SetRegulVoltageScaling(LL_PWR_REGU_VOLTAGE_SCALE1);
 8001188:	f44f 7000 	mov.w	r0, #512	@ 0x200
 800118c:	f7ff fe98 	bl	8000ec0 <LL_PWR_SetRegulVoltageScaling>
  LL_RCC_HSE_Enable();
 8001190:	f7ff fcd0 	bl	8000b34 <LL_RCC_HSE_Enable>
   /* Wait till HSE is ready */
  while(LL_RCC_HSE_IsReady() != 1)
 8001194:	bf00      	nop
 8001196:	f7ff fcdd 	bl	8000b54 <LL_RCC_HSE_IsReady>
 800119a:	4603      	mov	r3, r0
 800119c:	2b01      	cmp	r3, #1
 800119e:	d1fa      	bne.n	8001196 <SystemClock_Config+0x26>
  {
  }

  LL_RCC_PLL_ConfigDomain_SYS(LL_RCC_PLLSOURCE_HSE, LL_RCC_PLLM_DIV_5, 75, LL_RCC_PLLR_DIV_2);
 80011a0:	2300      	movs	r3, #0
 80011a2:	224b      	movs	r2, #75	@ 0x4b
 80011a4:	2140      	movs	r1, #64	@ 0x40
 80011a6:	2003      	movs	r0, #3
 80011a8:	f7ff fda8 	bl	8000cfc <LL_RCC_PLL_ConfigDomain_SYS>
  LL_RCC_PLL_ConfigDomain_ADC(LL_RCC_PLLSOURCE_HSE, LL_RCC_PLLM_DIV_5, 75, LL_RCC_PLLP_DIV_20);
 80011ac:	f04f 4320 	mov.w	r3, #2684354560	@ 0xa0000000
 80011b0:	224b      	movs	r2, #75	@ 0x4b
 80011b2:	2140      	movs	r1, #64	@ 0x40
 80011b4:	2003      	movs	r0, #3
 80011b6:	f7ff fdc1 	bl	8000d3c <LL_RCC_PLL_ConfigDomain_ADC>
  LL_RCC_PLL_EnableDomain_SYS();
 80011ba:	f7ff fdef 	bl	8000d9c <LL_RCC_PLL_EnableDomain_SYS>
  LL_RCC_PLL_EnableDomain_ADC();
 80011be:	f7ff fddd 	bl	8000d7c <LL_RCC_PLL_EnableDomain_ADC>
  LL_RCC_PLL_Enable();
 80011c2:	f7ff fd77 	bl	8000cb4 <LL_RCC_PLL_Enable>
   /* Wait till PLL is ready */
  while(LL_RCC_PLL_IsReady() != 1)
 80011c6:	bf00      	nop
 80011c8:	f7ff fd84 	bl	8000cd4 <LL_RCC_PLL_IsReady>
 80011cc:	4603      	mov	r3, r0
 80011ce:	2b01      	cmp	r3, #1
 80011d0:	d1fa      	bne.n	80011c8 <SystemClock_Config+0x58>
  {
  }

  LL_RCC_SetSysClkSource(LL_RCC_SYS_CLKSOURCE_PLL);
 80011d2:	2003      	movs	r0, #3
 80011d4:	f7ff fcd2 	bl	8000b7c <LL_RCC_SetSysClkSource>
  LL_RCC_SetAHBPrescaler(LL_RCC_SYSCLK_DIV_2);
 80011d8:	2080      	movs	r0, #128	@ 0x80
 80011da:	f7ff fcf1 	bl	8000bc0 <LL_RCC_SetAHBPrescaler>
   /* Wait till System clock is ready */
  while(LL_RCC_GetSysClkSource() != LL_RCC_SYS_CLKSOURCE_STATUS_PLL)
 80011de:	bf00      	nop
 80011e0:	f7ff fce0 	bl	8000ba4 <LL_RCC_GetSysClkSource>
 80011e4:	4603      	mov	r3, r0
 80011e6:	2b0c      	cmp	r3, #12
 80011e8:	d1fa      	bne.n	80011e0 <SystemClock_Config+0x70>
  {
  }

  /* Insure 1us transition state at intermediate medium speed clock*/
  for (__IO uint32_t i = (170 >> 1); i !=0; i--);
 80011ea:	2355      	movs	r3, #85	@ 0x55
 80011ec:	607b      	str	r3, [r7, #4]
 80011ee:	e002      	b.n	80011f6 <SystemClock_Config+0x86>
 80011f0:	687b      	ldr	r3, [r7, #4]
 80011f2:	3b01      	subs	r3, #1
 80011f4:	607b      	str	r3, [r7, #4]
 80011f6:	687b      	ldr	r3, [r7, #4]
 80011f8:	2b00      	cmp	r3, #0
 80011fa:	d1f9      	bne.n	80011f0 <SystemClock_Config+0x80>

  /* Set AHB prescaler*/
  LL_RCC_SetAHBPrescaler(LL_RCC_SYSCLK_DIV_1);
 80011fc:	2000      	movs	r0, #0
 80011fe:	f7ff fcdf 	bl	8000bc0 <LL_RCC_SetAHBPrescaler>
  LL_RCC_SetAPB1Prescaler(LL_RCC_APB1_DIV_1);
 8001202:	2000      	movs	r0, #0
 8001204:	f7ff fcf0 	bl	8000be8 <LL_RCC_SetAPB1Prescaler>
  LL_RCC_SetAPB2Prescaler(LL_RCC_APB2_DIV_1);
 8001208:	2000      	movs	r0, #0
 800120a:	f7ff fd01 	bl	8000c10 <LL_RCC_SetAPB2Prescaler>

  LL_Init1msTick(150000000);
 800120e:	4805      	ldr	r0, [pc, #20]	@ (8001224 <SystemClock_Config+0xb4>)
 8001210:	f002 fad4 	bl	80037bc <LL_Init1msTick>

  LL_SetSystemCoreClock(150000000);
 8001214:	4803      	ldr	r0, [pc, #12]	@ (8001224 <SystemClock_Config+0xb4>)
 8001216:	f002 fb07 	bl	8003828 <LL_SetSystemCoreClock>
}
 800121a:	bf00      	nop
 800121c:	3708      	adds	r7, #8
 800121e:	46bd      	mov	sp, r7
 8001220:	bd80      	pop	{r7, pc}
 8001222:	bf00      	nop
 8001224:	08f0d180 	.word	0x08f0d180

08001228 <MX_ADC1_Init>:
  * @brief ADC1 Initialization Function
  * @param None
  * @retval None
  */
static void MX_ADC1_Init(void)
{
 8001228:	b580      	push	{r7, lr}
 800122a:	b094      	sub	sp, #80	@ 0x50
 800122c:	af00      	add	r7, sp, #0

  /* USER CODE BEGIN ADC1_Init 0 */

  /* USER CODE END ADC1_Init 0 */

  LL_ADC_InitTypeDef ADC_InitStruct = {0};
 800122e:	f107 0340 	add.w	r3, r7, #64	@ 0x40
 8001232:	2200      	movs	r2, #0
 8001234:	601a      	str	r2, [r3, #0]
 8001236:	605a      	str	r2, [r3, #4]
 8001238:	609a      	str	r2, [r3, #8]
  LL_ADC_REG_InitTypeDef ADC_REG_InitStruct = {0};
 800123a:	f107 0328 	add.w	r3, r7, #40	@ 0x28
 800123e:	2200      	movs	r2, #0
 8001240:	601a      	str	r2, [r3, #0]
 8001242:	605a      	str	r2, [r3, #4]
 8001244:	609a      	str	r2, [r3, #8]
 8001246:	60da      	str	r2, [r3, #12]
 8001248:	611a      	str	r2, [r3, #16]
 800124a:	615a      	str	r2, [r3, #20]
  LL_ADC_CommonInitTypeDef ADC_CommonInitStruct = {0};
 800124c:	f107 0318 	add.w	r3, r7, #24
 8001250:	2200      	movs	r2, #0
 8001252:	601a      	str	r2, [r3, #0]
 8001254:	605a      	str	r2, [r3, #4]
 8001256:	609a      	str	r2, [r3, #8]
 8001258:	60da      	str	r2, [r3, #12]

  LL_GPIO_InitTypeDef GPIO_InitStruct = {0};
 800125a:	463b      	mov	r3, r7
 800125c:	2200      	movs	r2, #0
 800125e:	601a      	str	r2, [r3, #0]
 8001260:	605a      	str	r2, [r3, #4]
 8001262:	609a      	str	r2, [r3, #8]
 8001264:	60da      	str	r2, [r3, #12]
 8001266:	611a      	str	r2, [r3, #16]
 8001268:	615a      	str	r2, [r3, #20]

  LL_RCC_SetADCClockSource(LL_RCC_ADC12_CLKSOURCE_PLL);
 800126a:	4883      	ldr	r0, [pc, #524]	@ (8001478 <MX_ADC1_Init+0x250>)
 800126c:	f7ff fcfe 	bl	8000c6c <LL_RCC_SetADCClockSource>

  /* Peripheral clock enable */
  LL_AHB2_GRP1_EnableClock(LL_AHB2_GRP1_PERIPH_ADC12);
 8001270:	f44f 5000 	mov.w	r0, #8192	@ 0x2000
 8001274:	f7ff fdba 	bl	8000dec <LL_AHB2_GRP1_EnableClock>

  LL_AHB2_GRP1_EnableClock(LL_AHB2_GRP1_PERIPH_GPIOA);
 8001278:	2001      	movs	r0, #1
 800127a:	f7ff fdb7 	bl	8000dec <LL_AHB2_GRP1_EnableClock>
  PA0   ------> ADC1_IN1
  PA1   ------> ADC1_IN2
  PA2   ------> ADC1_IN3
  PA3   ------> ADC1_IN4
  */
  GPIO_InitStruct.Pin = U_SH1000_Pin;
 800127e:	2301      	movs	r3, #1
 8001280:	603b      	str	r3, [r7, #0]
  GPIO_InitStruct.Mode = LL_GPIO_MODE_ANALOG;
 8001282:	2303      	movs	r3, #3
 8001284:	607b      	str	r3, [r7, #4]
  GPIO_InitStruct.Pull = LL_GPIO_PULL_NO;
 8001286:	2300      	movs	r3, #0
 8001288:	613b      	str	r3, [r7, #16]
  LL_GPIO_Init(U_SH1000_GPIO_Port, &GPIO_InitStruct);
 800128a:	463b      	mov	r3, r7
 800128c:	4619      	mov	r1, r3
 800128e:	f04f 4090 	mov.w	r0, #1207959552	@ 0x48000000
 8001292:	f001 fdc2 	bl	8002e1a <LL_GPIO_Init>

  GPIO_InitStruct.Pin = U_SH240_Pin;
 8001296:	2302      	movs	r3, #2
 8001298:	603b      	str	r3, [r7, #0]
  GPIO_InitStruct.Mode = LL_GPIO_MODE_ANALOG;
 800129a:	2303      	movs	r3, #3
 800129c:	607b      	str	r3, [r7, #4]
  GPIO_InitStruct.Pull = LL_GPIO_PULL_NO;
 800129e:	2300      	movs	r3, #0
 80012a0:	613b      	str	r3, [r7, #16]
  LL_GPIO_Init(U_SH240_GPIO_Port, &GPIO_InitStruct);
 80012a2:	463b      	mov	r3, r7
 80012a4:	4619      	mov	r1, r3
 80012a6:	f04f 4090 	mov.w	r0, #1207959552	@ 0x48000000
 80012aa:	f001 fdb6 	bl	8002e1a <LL_GPIO_Init>

  GPIO_InitStruct.Pin = I_SH240_Pin;
 80012ae:	2304      	movs	r3, #4
 80012b0:	603b      	str	r3, [r7, #0]
  GPIO_InitStruct.Mode = LL_GPIO_MODE_ANALOG;
 80012b2:	2303      	movs	r3, #3
 80012b4:	607b      	str	r3, [r7, #4]
  GPIO_InitStruct.Pull = LL_GPIO_PULL_NO;
 80012b6:	2300      	movs	r3, #0
 80012b8:	613b      	str	r3, [r7, #16]
  LL_GPIO_Init(I_SH240_GPIO_Port, &GPIO_InitStruct);
 80012ba:	463b      	mov	r3, r7
 80012bc:	4619      	mov	r1, r3
 80012be:	f04f 4090 	mov.w	r0, #1207959552	@ 0x48000000
 80012c2:	f001 fdaa 	bl	8002e1a <LL_GPIO_Init>

  GPIO_InitStruct.Pin = I_SH1000_Pin;
 80012c6:	2308      	movs	r3, #8
 80012c8:	603b      	str	r3, [r7, #0]
  GPIO_InitStruct.Mode = LL_GPIO_MODE_ANALOG;
 80012ca:	2303      	movs	r3, #3
 80012cc:	607b      	str	r3, [r7, #4]
  GPIO_InitStruct.Pull = LL_GPIO_PULL_NO;
 80012ce:	2300      	movs	r3, #0
 80012d0:	613b      	str	r3, [r7, #16]
  LL_GPIO_Init(I_SH1000_GPIO_Port, &GPIO_InitStruct);
 80012d2:	463b      	mov	r3, r7
 80012d4:	4619      	mov	r1, r3
 80012d6:	f04f 4090 	mov.w	r0, #1207959552	@ 0x48000000
 80012da:	f001 fd9e 	bl	8002e1a <LL_GPIO_Init>

  /* ADC1 DMA Init */

  /* ADC1 Init */
  LL_DMA_SetPeriphRequest(DMA1, LL_DMA_CHANNEL_1, LL_DMAMUX_REQ_ADC1);
 80012de:	2205      	movs	r2, #5
 80012e0:	2100      	movs	r1, #0
 80012e2:	4866      	ldr	r0, [pc, #408]	@ (800147c <MX_ADC1_Init+0x254>)
 80012e4:	f7ff fbfc 	bl	8000ae0 <LL_DMA_SetPeriphRequest>

  LL_DMA_SetDataTransferDirection(DMA1, LL_DMA_CHANNEL_1, LL_DMA_DIRECTION_PERIPH_TO_MEMORY);
 80012e8:	2200      	movs	r2, #0
 80012ea:	2100      	movs	r1, #0
 80012ec:	4863      	ldr	r0, [pc, #396]	@ (800147c <MX_ADC1_Init+0x254>)
 80012ee:	f7ff faeb 	bl	80008c8 <LL_DMA_SetDataTransferDirection>

  LL_DMA_SetChannelPriorityLevel(DMA1, LL_DMA_CHANNEL_1, LL_DMA_PRIORITY_LOW);
 80012f2:	2200      	movs	r2, #0
 80012f4:	2100      	movs	r1, #0
 80012f6:	4861      	ldr	r0, [pc, #388]	@ (800147c <MX_ADC1_Init+0x254>)
 80012f8:	f7ff fbcc 	bl	8000a94 <LL_DMA_SetChannelPriorityLevel>

  LL_DMA_SetMode(DMA1, LL_DMA_CHANNEL_1, LL_DMA_MODE_CIRCULAR);
 80012fc:	2220      	movs	r2, #32
 80012fe:	2100      	movs	r1, #0
 8001300:	485e      	ldr	r0, [pc, #376]	@ (800147c <MX_ADC1_Init+0x254>)
 8001302:	f7ff fb09 	bl	8000918 <LL_DMA_SetMode>

  LL_DMA_SetPeriphIncMode(DMA1, LL_DMA_CHANNEL_1, LL_DMA_PERIPH_NOINCREMENT);
 8001306:	2200      	movs	r2, #0
 8001308:	2100      	movs	r1, #0
 800130a:	485c      	ldr	r0, [pc, #368]	@ (800147c <MX_ADC1_Init+0x254>)
 800130c:	f7ff fb2a 	bl	8000964 <LL_DMA_SetPeriphIncMode>

  LL_DMA_SetMemoryIncMode(DMA1, LL_DMA_CHANNEL_1, LL_DMA_MEMORY_INCREMENT);
 8001310:	2280      	movs	r2, #128	@ 0x80
 8001312:	2100      	movs	r1, #0
 8001314:	4859      	ldr	r0, [pc, #356]	@ (800147c <MX_ADC1_Init+0x254>)
 8001316:	f7ff fb4b 	bl	80009b0 <LL_DMA_SetMemoryIncMode>

  LL_DMA_SetPeriphSize(DMA1, LL_DMA_CHANNEL_1, LL_DMA_PDATAALIGN_HALFWORD);
 800131a:	f44f 7280 	mov.w	r2, #256	@ 0x100
 800131e:	2100      	movs	r1, #0
 8001320:	4856      	ldr	r0, [pc, #344]	@ (800147c <MX_ADC1_Init+0x254>)
 8001322:	f7ff fb6b 	bl	80009fc <LL_DMA_SetPeriphSize>

  LL_DMA_SetMemorySize(DMA1, LL_DMA_CHANNEL_1, LL_DMA_MDATAALIGN_HALFWORD);
 8001326:	f44f 6280 	mov.w	r2, #1024	@ 0x400
 800132a:	2100      	movs	r1, #0
 800132c:	4853      	ldr	r0, [pc, #332]	@ (800147c <MX_ADC1_Init+0x254>)
 800132e:	f7ff fb8b 	bl	8000a48 <LL_DMA_SetMemorySize>

  /* USER CODE END ADC1_Init 1 */

  /** Common config
  */
  ADC_InitStruct.Resolution = LL_ADC_RESOLUTION_12B;
 8001332:	2300      	movs	r3, #0
 8001334:	643b      	str	r3, [r7, #64]	@ 0x40
  ADC_InitStruct.DataAlignment = LL_ADC_DATA_ALIGN_RIGHT;
 8001336:	2300      	movs	r3, #0
 8001338:	647b      	str	r3, [r7, #68]	@ 0x44
  ADC_InitStruct.LowPowerMode = LL_ADC_LP_MODE_NONE;
 800133a:	2300      	movs	r3, #0
 800133c:	64bb      	str	r3, [r7, #72]	@ 0x48
  LL_ADC_Init(ADC1, &ADC_InitStruct);
 800133e:	f107 0340 	add.w	r3, r7, #64	@ 0x40
 8001342:	4619      	mov	r1, r3
 8001344:	f04f 40a0 	mov.w	r0, #1342177280	@ 0x50000000
 8001348:	f001 fbac 	bl	8002aa4 <LL_ADC_Init>
  ADC_REG_InitStruct.TriggerSource = LL_ADC_REG_TRIG_SOFTWARE;
 800134c:	2300      	movs	r3, #0
 800134e:	62bb      	str	r3, [r7, #40]	@ 0x28
  ADC_REG_InitStruct.SequencerLength = LL_ADC_REG_SEQ_SCAN_ENABLE_4RANKS;
 8001350:	2303      	movs	r3, #3
 8001352:	62fb      	str	r3, [r7, #44]	@ 0x2c
  ADC_REG_InitStruct.SequencerDiscont = LL_ADC_REG_SEQ_DISCONT_DISABLE;
 8001354:	2300      	movs	r3, #0
 8001356:	633b      	str	r3, [r7, #48]	@ 0x30
  ADC_REG_InitStruct.ContinuousMode = LL_ADC_REG_CONV_SINGLE;
 8001358:	2300      	movs	r3, #0
 800135a:	637b      	str	r3, [r7, #52]	@ 0x34
  ADC_REG_InitStruct.DMATransfer = LL_ADC_REG_DMA_TRANSFER_UNLIMITED;
 800135c:	2303      	movs	r3, #3
 800135e:	63bb      	str	r3, [r7, #56]	@ 0x38
  ADC_REG_InitStruct.Overrun = LL_ADC_REG_OVR_DATA_OVERWRITTEN;
 8001360:	f44f 5380 	mov.w	r3, #4096	@ 0x1000
 8001364:	63fb      	str	r3, [r7, #60]	@ 0x3c
  LL_ADC_REG_Init(ADC1, &ADC_REG_InitStruct);
 8001366:	f107 0328 	add.w	r3, r7, #40	@ 0x28
 800136a:	4619      	mov	r1, r3
 800136c:	f04f 40a0 	mov.w	r0, #1342177280	@ 0x50000000
 8001370:	f001 fbbe 	bl	8002af0 <LL_ADC_REG_Init>
  LL_ADC_SetGainCompensation(ADC1, 0);
 8001374:	2100      	movs	r1, #0
 8001376:	f04f 40a0 	mov.w	r0, #1342177280	@ 0x50000000
 800137a:	f7ff f9c8 	bl	800070e <LL_ADC_SetGainCompensation>
  LL_ADC_SetOverSamplingScope(ADC1, LL_ADC_OVS_DISABLE);
 800137e:	2100      	movs	r1, #0
 8001380:	f04f 40a0 	mov.w	r0, #1342177280	@ 0x50000000
 8001384:	f7ff fa64 	bl	8000850 <LL_ADC_SetOverSamplingScope>
  ADC_CommonInitStruct.CommonClock = LL_ADC_CLOCK_ASYNC_DIV2;
 8001388:	f44f 2380 	mov.w	r3, #262144	@ 0x40000
 800138c:	61bb      	str	r3, [r7, #24]
  ADC_CommonInitStruct.Multimode = LL_ADC_MULTI_INDEPENDENT;
 800138e:	2300      	movs	r3, #0
 8001390:	61fb      	str	r3, [r7, #28]
  LL_ADC_CommonInit(__LL_ADC_COMMON_INSTANCE(ADC1), &ADC_CommonInitStruct);
 8001392:	f107 0318 	add.w	r3, r7, #24
 8001396:	4619      	mov	r1, r3
 8001398:	4839      	ldr	r0, [pc, #228]	@ (8001480 <MX_ADC1_Init+0x258>)
 800139a:	f001 fb43 	bl	8002a24 <LL_ADC_CommonInit>

  /* Disable ADC deep power down (enabled by default after reset state) */
  LL_ADC_DisableDeepPowerDown(ADC1);
 800139e:	f04f 40a0 	mov.w	r0, #1342177280	@ 0x50000000
 80013a2:	f7ff fa6a 	bl	800087a <LL_ADC_DisableDeepPowerDown>
  /* Enable ADC internal voltage regulator */
  LL_ADC_EnableInternalRegulator(ADC1);
 80013a6:	f04f 40a0 	mov.w	r0, #1342177280	@ 0x50000000
 80013aa:	f7ff fa78 	bl	800089e <LL_ADC_EnableInternalRegulator>
  /* Note: Variable divided by 2 to compensate partially */
  /* CPU processing cycles (depends on compilation optimization). */
  /* Note: If system core clock frequency is below 200kHz, wait time */
  /* is only a few CPU processing cycles. */
  uint32_t wait_loop_index;
  wait_loop_index = ((LL_ADC_DELAY_INTERNAL_REGUL_STAB_US * (SystemCoreClock / (100000 * 2))) / 10);
 80013ae:	4b35      	ldr	r3, [pc, #212]	@ (8001484 <MX_ADC1_Init+0x25c>)
 80013b0:	681b      	ldr	r3, [r3, #0]
 80013b2:	099b      	lsrs	r3, r3, #6
 80013b4:	4a34      	ldr	r2, [pc, #208]	@ (8001488 <MX_ADC1_Init+0x260>)
 80013b6:	fba2 2303 	umull	r2, r3, r2, r3
 80013ba:	099a      	lsrs	r2, r3, #6
 80013bc:	4613      	mov	r3, r2
 80013be:	009b      	lsls	r3, r3, #2
 80013c0:	4413      	add	r3, r2
 80013c2:	009b      	lsls	r3, r3, #2
 80013c4:	461a      	mov	r2, r3
 80013c6:	4b31      	ldr	r3, [pc, #196]	@ (800148c <MX_ADC1_Init+0x264>)
 80013c8:	fba3 2302 	umull	r2, r3, r3, r2
 80013cc:	08db      	lsrs	r3, r3, #3
 80013ce:	64fb      	str	r3, [r7, #76]	@ 0x4c
  while(wait_loop_index != 0)
 80013d0:	e002      	b.n	80013d8 <MX_ADC1_Init+0x1b0>
  {
    wait_loop_index--;
 80013d2:	6cfb      	ldr	r3, [r7, #76]	@ 0x4c
 80013d4:	3b01      	subs	r3, #1
 80013d6:	64fb      	str	r3, [r7, #76]	@ 0x4c
  while(wait_loop_index != 0)
 80013d8:	6cfb      	ldr	r3, [r7, #76]	@ 0x4c
 80013da:	2b00      	cmp	r3, #0
 80013dc:	d1f9      	bne.n	80013d2 <MX_ADC1_Init+0x1aa>
  }

  /** Configure Regular Channel
  */
  LL_ADC_REG_SetSequencerRanks(ADC1, LL_ADC_REG_RANK_1, LL_ADC_CHANNEL_1);
 80013de:	4a2c      	ldr	r2, [pc, #176]	@ (8001490 <MX_ADC1_Init+0x268>)
 80013e0:	2106      	movs	r1, #6
 80013e2:	f04f 40a0 	mov.w	r0, #1342177280	@ 0x50000000
 80013e6:	f7ff f9b7 	bl	8000758 <LL_ADC_REG_SetSequencerRanks>
  LL_ADC_SetChannelSamplingTime(ADC1, LL_ADC_CHANNEL_1, LL_ADC_SAMPLINGTIME_47CYCLES_5);
 80013ea:	2204      	movs	r2, #4
 80013ec:	4928      	ldr	r1, [pc, #160]	@ (8001490 <MX_ADC1_Init+0x268>)
 80013ee:	f04f 40a0 	mov.w	r0, #1342177280	@ 0x50000000
 80013f2:	f7ff f9dd 	bl	80007b0 <LL_ADC_SetChannelSamplingTime>
  LL_ADC_SetChannelSingleDiff(ADC1, LL_ADC_CHANNEL_1, LL_ADC_SINGLE_ENDED);
 80013f6:	227f      	movs	r2, #127	@ 0x7f
 80013f8:	4925      	ldr	r1, [pc, #148]	@ (8001490 <MX_ADC1_Init+0x268>)
 80013fa:	f04f 40a0 	mov.w	r0, #1342177280	@ 0x50000000
 80013fe:	f7ff fa03 	bl	8000808 <LL_ADC_SetChannelSingleDiff>

  /** Configure Regular Channel
  */
  LL_ADC_REG_SetSequencerRanks(ADC1, LL_ADC_REG_RANK_2, LL_ADC_CHANNEL_2);
 8001402:	4a24      	ldr	r2, [pc, #144]	@ (8001494 <MX_ADC1_Init+0x26c>)
 8001404:	210c      	movs	r1, #12
 8001406:	f04f 40a0 	mov.w	r0, #1342177280	@ 0x50000000
 800140a:	f7ff f9a5 	bl	8000758 <LL_ADC_REG_SetSequencerRanks>
  LL_ADC_SetChannelSamplingTime(ADC1, LL_ADC_CHANNEL_2, LL_ADC_SAMPLINGTIME_47CYCLES_5);
 800140e:	2204      	movs	r2, #4
 8001410:	4920      	ldr	r1, [pc, #128]	@ (8001494 <MX_ADC1_Init+0x26c>)
 8001412:	f04f 40a0 	mov.w	r0, #1342177280	@ 0x50000000
 8001416:	f7ff f9cb 	bl	80007b0 <LL_ADC_SetChannelSamplingTime>
  LL_ADC_SetChannelSingleDiff(ADC1, LL_ADC_CHANNEL_2, LL_ADC_SINGLE_ENDED);
 800141a:	227f      	movs	r2, #127	@ 0x7f
 800141c:	491d      	ldr	r1, [pc, #116]	@ (8001494 <MX_ADC1_Init+0x26c>)
 800141e:	f04f 40a0 	mov.w	r0, #1342177280	@ 0x50000000
 8001422:	f7ff f9f1 	bl	8000808 <LL_ADC_SetChannelSingleDiff>

  /** Configure Regular Channel
  */
  LL_ADC_REG_SetSequencerRanks(ADC1, LL_ADC_REG_RANK_3, LL_ADC_CHANNEL_3);
 8001426:	4a1c      	ldr	r2, [pc, #112]	@ (8001498 <MX_ADC1_Init+0x270>)
 8001428:	2112      	movs	r1, #18
 800142a:	f04f 40a0 	mov.w	r0, #1342177280	@ 0x50000000
 800142e:	f7ff f993 	bl	8000758 <LL_ADC_REG_SetSequencerRanks>
  LL_ADC_SetChannelSamplingTime(ADC1, LL_ADC_CHANNEL_3, LL_ADC_SAMPLINGTIME_47CYCLES_5);
 8001432:	2204      	movs	r2, #4
 8001434:	4918      	ldr	r1, [pc, #96]	@ (8001498 <MX_ADC1_Init+0x270>)
 8001436:	f04f 40a0 	mov.w	r0, #1342177280	@ 0x50000000
 800143a:	f7ff f9b9 	bl	80007b0 <LL_ADC_SetChannelSamplingTime>
  LL_ADC_SetChannelSingleDiff(ADC1, LL_ADC_CHANNEL_3, LL_ADC_SINGLE_ENDED);
 800143e:	227f      	movs	r2, #127	@ 0x7f
 8001440:	4915      	ldr	r1, [pc, #84]	@ (8001498 <MX_ADC1_Init+0x270>)
 8001442:	f04f 40a0 	mov.w	r0, #1342177280	@ 0x50000000
 8001446:	f7ff f9df 	bl	8000808 <LL_ADC_SetChannelSingleDiff>

  /** Configure Regular Channel
  */
  LL_ADC_REG_SetSequencerRanks(ADC1, LL_ADC_REG_RANK_4, LL_ADC_CHANNEL_4);
 800144a:	4a14      	ldr	r2, [pc, #80]	@ (800149c <MX_ADC1_Init+0x274>)
 800144c:	2118      	movs	r1, #24
 800144e:	f04f 40a0 	mov.w	r0, #1342177280	@ 0x50000000
 8001452:	f7ff f981 	bl	8000758 <LL_ADC_REG_SetSequencerRanks>
  LL_ADC_SetChannelSamplingTime(ADC1, LL_ADC_CHANNEL_4, LL_ADC_SAMPLINGTIME_47CYCLES_5);
 8001456:	2204      	movs	r2, #4
 8001458:	4910      	ldr	r1, [pc, #64]	@ (800149c <MX_ADC1_Init+0x274>)
 800145a:	f04f 40a0 	mov.w	r0, #1342177280	@ 0x50000000
 800145e:	f7ff f9a7 	bl	80007b0 <LL_ADC_SetChannelSamplingTime>
  LL_ADC_SetChannelSingleDiff(ADC1, LL_ADC_CHANNEL_4, LL_ADC_SINGLE_ENDED);
 8001462:	227f      	movs	r2, #127	@ 0x7f
 8001464:	490d      	ldr	r1, [pc, #52]	@ (800149c <MX_ADC1_Init+0x274>)
 8001466:	f04f 40a0 	mov.w	r0, #1342177280	@ 0x50000000
 800146a:	f7ff f9cd 	bl	8000808 <LL_ADC_SetChannelSingleDiff>
  /* USER CODE BEGIN ADC1_Init 2 */

  /* USER CODE END ADC1_Init 2 */

}
 800146e:	bf00      	nop
 8001470:	3750      	adds	r7, #80	@ 0x50
 8001472:	46bd      	mov	sp, r7
 8001474:	bd80      	pop	{r7, pc}
 8001476:	bf00      	nop
 8001478:	001c0001 	.word	0x001c0001
 800147c:	40020000 	.word	0x40020000
 8001480:	50000300 	.word	0x50000300
 8001484:	20000028 	.word	0x20000028
 8001488:	053e2d63 	.word	0x053e2d63
 800148c:	cccccccd 	.word	0xcccccccd
 8001490:	04300002 	.word	0x04300002
 8001494:	08600004 	.word	0x08600004
 8001498:	0c900008 	.word	0x0c900008
 800149c:	10c00010 	.word	0x10c00010

080014a0 <MX_ADC2_Init>:
  * @brief ADC2 Initialization Function
  * @param None
  * @retval None
  */
static void MX_ADC2_Init(void)
{
 80014a0:	b580      	push	{r7, lr}
 80014a2:	b090      	sub	sp, #64	@ 0x40
 80014a4:	af00      	add	r7, sp, #0

  /* USER CODE BEGIN ADC2_Init 0 */

  /* USER CODE END ADC2_Init 0 */

  LL_ADC_InitTypeDef ADC_InitStruct = {0};
 80014a6:	f107 0330 	add.w	r3, r7, #48	@ 0x30
 80014aa:	2200      	movs	r2, #0
 80014ac:	601a      	str	r2, [r3, #0]
 80014ae:	605a      	str	r2, [r3, #4]
 80014b0:	609a      	str	r2, [r3, #8]
  LL_ADC_REG_InitTypeDef ADC_REG_InitStruct = {0};
 80014b2:	f107 0318 	add.w	r3, r7, #24
 80014b6:	2200      	movs	r2, #0
 80014b8:	601a      	str	r2, [r3, #0]
 80014ba:	605a      	str	r2, [r3, #4]
 80014bc:	609a      	str	r2, [r3, #8]
 80014be:	60da      	str	r2, [r3, #12]
 80014c0:	611a      	str	r2, [r3, #16]
 80014c2:	615a      	str	r2, [r3, #20]

  LL_GPIO_InitTypeDef GPIO_InitStruct = {0};
 80014c4:	463b      	mov	r3, r7
 80014c6:	2200      	movs	r2, #0
 80014c8:	601a      	str	r2, [r3, #0]
 80014ca:	605a      	str	r2, [r3, #4]
 80014cc:	609a      	str	r2, [r3, #8]
 80014ce:	60da      	str	r2, [r3, #12]
 80014d0:	611a      	str	r2, [r3, #16]
 80014d2:	615a      	str	r2, [r3, #20]

  LL_RCC_SetADCClockSource(LL_RCC_ADC12_CLKSOURCE_PLL);
 80014d4:	4866      	ldr	r0, [pc, #408]	@ (8001670 <MX_ADC2_Init+0x1d0>)
 80014d6:	f7ff fbc9 	bl	8000c6c <LL_RCC_SetADCClockSource>

  /* Peripheral clock enable */
  LL_AHB2_GRP1_EnableClock(LL_AHB2_GRP1_PERIPH_ADC12);
 80014da:	f44f 5000 	mov.w	r0, #8192	@ 0x2000
 80014de:	f7ff fc85 	bl	8000dec <LL_AHB2_GRP1_EnableClock>

  LL_AHB2_GRP1_EnableClock(LL_AHB2_GRP1_PERIPH_GPIOA);
 80014e2:	2001      	movs	r0, #1
 80014e4:	f7ff fc82 	bl	8000dec <LL_AHB2_GRP1_EnableClock>
  /**ADC2 GPIO Configuration
  PA4   ------> ADC2_IN17
  PA5   ------> ADC2_IN13
  PA6   ------> ADC2_IN3
  */
  GPIO_InitStruct.Pin = U_L_Pin;
 80014e8:	2310      	movs	r3, #16
 80014ea:	603b      	str	r3, [r7, #0]
  GPIO_InitStruct.Mode = LL_GPIO_MODE_ANALOG;
 80014ec:	2303      	movs	r3, #3
 80014ee:	607b      	str	r3, [r7, #4]
  GPIO_InitStruct.Pull = LL_GPIO_PULL_NO;
 80014f0:	2300      	movs	r3, #0
 80014f2:	613b      	str	r3, [r7, #16]
  LL_GPIO_Init(U_L_GPIO_Port, &GPIO_InitStruct);
 80014f4:	463b      	mov	r3, r7
 80014f6:	4619      	mov	r1, r3
 80014f8:	f04f 4090 	mov.w	r0, #1207959552	@ 0x48000000
 80014fc:	f001 fc8d 	bl	8002e1a <LL_GPIO_Init>

  GPIO_InitStruct.Pin = I_P_Pin;
 8001500:	2320      	movs	r3, #32
 8001502:	603b      	str	r3, [r7, #0]
  GPIO_InitStruct.Mode = LL_GPIO_MODE_ANALOG;
 8001504:	2303      	movs	r3, #3
 8001506:	607b      	str	r3, [r7, #4]
  GPIO_InitStruct.Pull = LL_GPIO_PULL_NO;
 8001508:	2300      	movs	r3, #0
 800150a:	613b      	str	r3, [r7, #16]
  LL_GPIO_Init(I_P_GPIO_Port, &GPIO_InitStruct);
 800150c:	463b      	mov	r3, r7
 800150e:	4619      	mov	r1, r3
 8001510:	f04f 4090 	mov.w	r0, #1207959552	@ 0x48000000
 8001514:	f001 fc81 	bl	8002e1a <LL_GPIO_Init>

  GPIO_InitStruct.Pin = U_C_Pin;
 8001518:	2340      	movs	r3, #64	@ 0x40
 800151a:	603b      	str	r3, [r7, #0]
  GPIO_InitStruct.Mode = LL_GPIO_MODE_ANALOG;
 800151c:	2303      	movs	r3, #3
 800151e:	607b      	str	r3, [r7, #4]
  GPIO_InitStruct.Pull = LL_GPIO_PULL_NO;
 8001520:	2300      	movs	r3, #0
 8001522:	613b      	str	r3, [r7, #16]
  LL_GPIO_Init(U_C_GPIO_Port, &GPIO_InitStruct);
 8001524:	463b      	mov	r3, r7
 8001526:	4619      	mov	r1, r3
 8001528:	f04f 4090 	mov.w	r0, #1207959552	@ 0x48000000
 800152c:	f001 fc75 	bl	8002e1a <LL_GPIO_Init>

  /* ADC2 DMA Init */

  /* ADC2 Init */
  LL_DMA_SetPeriphRequest(DMA1, LL_DMA_CHANNEL_2, LL_DMAMUX_REQ_ADC2);
 8001530:	2224      	movs	r2, #36	@ 0x24
 8001532:	2101      	movs	r1, #1
 8001534:	484f      	ldr	r0, [pc, #316]	@ (8001674 <MX_ADC2_Init+0x1d4>)
 8001536:	f7ff fad3 	bl	8000ae0 <LL_DMA_SetPeriphRequest>

  LL_DMA_SetDataTransferDirection(DMA1, LL_DMA_CHANNEL_2, LL_DMA_DIRECTION_PERIPH_TO_MEMORY);
 800153a:	2200      	movs	r2, #0
 800153c:	2101      	movs	r1, #1
 800153e:	484d      	ldr	r0, [pc, #308]	@ (8001674 <MX_ADC2_Init+0x1d4>)
 8001540:	f7ff f9c2 	bl	80008c8 <LL_DMA_SetDataTransferDirection>

  LL_DMA_SetChannelPriorityLevel(DMA1, LL_DMA_CHANNEL_2, LL_DMA_PRIORITY_LOW);
 8001544:	2200      	movs	r2, #0
 8001546:	2101      	movs	r1, #1
 8001548:	484a      	ldr	r0, [pc, #296]	@ (8001674 <MX_ADC2_Init+0x1d4>)
 800154a:	f7ff faa3 	bl	8000a94 <LL_DMA_SetChannelPriorityLevel>

  LL_DMA_SetMode(DMA1, LL_DMA_CHANNEL_2, LL_DMA_MODE_CIRCULAR);
 800154e:	2220      	movs	r2, #32
 8001550:	2101      	movs	r1, #1
 8001552:	4848      	ldr	r0, [pc, #288]	@ (8001674 <MX_ADC2_Init+0x1d4>)
 8001554:	f7ff f9e0 	bl	8000918 <LL_DMA_SetMode>

  LL_DMA_SetPeriphIncMode(DMA1, LL_DMA_CHANNEL_2, LL_DMA_PERIPH_NOINCREMENT);
 8001558:	2200      	movs	r2, #0
 800155a:	2101      	movs	r1, #1
 800155c:	4845      	ldr	r0, [pc, #276]	@ (8001674 <MX_ADC2_Init+0x1d4>)
 800155e:	f7ff fa01 	bl	8000964 <LL_DMA_SetPeriphIncMode>

  LL_DMA_SetMemoryIncMode(DMA1, LL_DMA_CHANNEL_2, LL_DMA_MEMORY_INCREMENT);
 8001562:	2280      	movs	r2, #128	@ 0x80
 8001564:	2101      	movs	r1, #1
 8001566:	4843      	ldr	r0, [pc, #268]	@ (8001674 <MX_ADC2_Init+0x1d4>)
 8001568:	f7ff fa22 	bl	80009b0 <LL_DMA_SetMemoryIncMode>

  LL_DMA_SetPeriphSize(DMA1, LL_DMA_CHANNEL_2, LL_DMA_PDATAALIGN_HALFWORD);
 800156c:	f44f 7280 	mov.w	r2, #256	@ 0x100
 8001570:	2101      	movs	r1, #1
 8001572:	4840      	ldr	r0, [pc, #256]	@ (8001674 <MX_ADC2_Init+0x1d4>)
 8001574:	f7ff fa42 	bl	80009fc <LL_DMA_SetPeriphSize>

  LL_DMA_SetMemorySize(DMA1, LL_DMA_CHANNEL_2, LL_DMA_MDATAALIGN_HALFWORD);
 8001578:	f44f 6280 	mov.w	r2, #1024	@ 0x400
 800157c:	2101      	movs	r1, #1
 800157e:	483d      	ldr	r0, [pc, #244]	@ (8001674 <MX_ADC2_Init+0x1d4>)
 8001580:	f7ff fa62 	bl	8000a48 <LL_DMA_SetMemorySize>

  /* USER CODE END ADC2_Init 1 */

  /** Common config
  */
  ADC_InitStruct.Resolution = LL_ADC_RESOLUTION_12B;
 8001584:	2300      	movs	r3, #0
 8001586:	633b      	str	r3, [r7, #48]	@ 0x30
  ADC_InitStruct.DataAlignment = LL_ADC_DATA_ALIGN_RIGHT;
 8001588:	2300      	movs	r3, #0
 800158a:	637b      	str	r3, [r7, #52]	@ 0x34
  ADC_InitStruct.LowPowerMode = LL_ADC_LP_MODE_NONE;
 800158c:	2300      	movs	r3, #0
 800158e:	63bb      	str	r3, [r7, #56]	@ 0x38
  LL_ADC_Init(ADC2, &ADC_InitStruct);
 8001590:	f107 0330 	add.w	r3, r7, #48	@ 0x30
 8001594:	4619      	mov	r1, r3
 8001596:	4838      	ldr	r0, [pc, #224]	@ (8001678 <MX_ADC2_Init+0x1d8>)
 8001598:	f001 fa84 	bl	8002aa4 <LL_ADC_Init>
  ADC_REG_InitStruct.TriggerSource = LL_ADC_REG_TRIG_SOFTWARE;
 800159c:	2300      	movs	r3, #0
 800159e:	61bb      	str	r3, [r7, #24]
  ADC_REG_InitStruct.SequencerLength = LL_ADC_REG_SEQ_SCAN_ENABLE_3RANKS;
 80015a0:	2302      	movs	r3, #2
 80015a2:	61fb      	str	r3, [r7, #28]
  ADC_REG_InitStruct.SequencerDiscont = LL_ADC_REG_SEQ_DISCONT_DISABLE;
 80015a4:	2300      	movs	r3, #0
 80015a6:	623b      	str	r3, [r7, #32]
  ADC_REG_InitStruct.ContinuousMode = LL_ADC_REG_CONV_SINGLE;
 80015a8:	2300      	movs	r3, #0
 80015aa:	627b      	str	r3, [r7, #36]	@ 0x24
  ADC_REG_InitStruct.DMATransfer = LL_ADC_REG_DMA_TRANSFER_UNLIMITED;
 80015ac:	2303      	movs	r3, #3
 80015ae:	62bb      	str	r3, [r7, #40]	@ 0x28
  ADC_REG_InitStruct.Overrun = LL_ADC_REG_OVR_DATA_OVERWRITTEN;
 80015b0:	f44f 5380 	mov.w	r3, #4096	@ 0x1000
 80015b4:	62fb      	str	r3, [r7, #44]	@ 0x2c
  LL_ADC_REG_Init(ADC2, &ADC_REG_InitStruct);
 80015b6:	f107 0318 	add.w	r3, r7, #24
 80015ba:	4619      	mov	r1, r3
 80015bc:	482e      	ldr	r0, [pc, #184]	@ (8001678 <MX_ADC2_Init+0x1d8>)
 80015be:	f001 fa97 	bl	8002af0 <LL_ADC_REG_Init>
  LL_ADC_SetGainCompensation(ADC2, 0);
 80015c2:	2100      	movs	r1, #0
 80015c4:	482c      	ldr	r0, [pc, #176]	@ (8001678 <MX_ADC2_Init+0x1d8>)
 80015c6:	f7ff f8a2 	bl	800070e <LL_ADC_SetGainCompensation>
  LL_ADC_SetOverSamplingScope(ADC2, LL_ADC_OVS_DISABLE);
 80015ca:	2100      	movs	r1, #0
 80015cc:	482a      	ldr	r0, [pc, #168]	@ (8001678 <MX_ADC2_Init+0x1d8>)
 80015ce:	f7ff f93f 	bl	8000850 <LL_ADC_SetOverSamplingScope>

  /* Disable ADC deep power down (enabled by default after reset state) */
  LL_ADC_DisableDeepPowerDown(ADC2);
 80015d2:	4829      	ldr	r0, [pc, #164]	@ (8001678 <MX_ADC2_Init+0x1d8>)
 80015d4:	f7ff f951 	bl	800087a <LL_ADC_DisableDeepPowerDown>
  /* Enable ADC internal voltage regulator */
  LL_ADC_EnableInternalRegulator(ADC2);
 80015d8:	4827      	ldr	r0, [pc, #156]	@ (8001678 <MX_ADC2_Init+0x1d8>)
 80015da:	f7ff f960 	bl	800089e <LL_ADC_EnableInternalRegulator>
  /* Note: Variable divided by 2 to compensate partially */
  /* CPU processing cycles (depends on compilation optimization). */
  /* Note: If system core clock frequency is below 200kHz, wait time */
  /* is only a few CPU processing cycles. */
  uint32_t wait_loop_index;
  wait_loop_index = ((LL_ADC_DELAY_INTERNAL_REGUL_STAB_US * (SystemCoreClock / (100000 * 2))) / 10);
 80015de:	4b27      	ldr	r3, [pc, #156]	@ (800167c <MX_ADC2_Init+0x1dc>)
 80015e0:	681b      	ldr	r3, [r3, #0]
 80015e2:	099b      	lsrs	r3, r3, #6
 80015e4:	4a26      	ldr	r2, [pc, #152]	@ (8001680 <MX_ADC2_Init+0x1e0>)
 80015e6:	fba2 2303 	umull	r2, r3, r2, r3
 80015ea:	099a      	lsrs	r2, r3, #6
 80015ec:	4613      	mov	r3, r2
 80015ee:	009b      	lsls	r3, r3, #2
 80015f0:	4413      	add	r3, r2
 80015f2:	009b      	lsls	r3, r3, #2
 80015f4:	461a      	mov	r2, r3
 80015f6:	4b23      	ldr	r3, [pc, #140]	@ (8001684 <MX_ADC2_Init+0x1e4>)
 80015f8:	fba3 2302 	umull	r2, r3, r3, r2
 80015fc:	08db      	lsrs	r3, r3, #3
 80015fe:	63fb      	str	r3, [r7, #60]	@ 0x3c
  while(wait_loop_index != 0)
 8001600:	e002      	b.n	8001608 <MX_ADC2_Init+0x168>
  {
    wait_loop_index--;
 8001602:	6bfb      	ldr	r3, [r7, #60]	@ 0x3c
 8001604:	3b01      	subs	r3, #1
 8001606:	63fb      	str	r3, [r7, #60]	@ 0x3c
  while(wait_loop_index != 0)
 8001608:	6bfb      	ldr	r3, [r7, #60]	@ 0x3c
 800160a:	2b00      	cmp	r3, #0
 800160c:	d1f9      	bne.n	8001602 <MX_ADC2_Init+0x162>
  }

  /** Configure Regular Channel
  */
  LL_ADC_REG_SetSequencerRanks(ADC2, LL_ADC_REG_RANK_1, LL_ADC_CHANNEL_17);
 800160e:	4a1e      	ldr	r2, [pc, #120]	@ (8001688 <MX_ADC2_Init+0x1e8>)
 8001610:	2106      	movs	r1, #6
 8001612:	4819      	ldr	r0, [pc, #100]	@ (8001678 <MX_ADC2_Init+0x1d8>)
 8001614:	f7ff f8a0 	bl	8000758 <LL_ADC_REG_SetSequencerRanks>
  LL_ADC_SetChannelSamplingTime(ADC2, LL_ADC_CHANNEL_17, LL_ADC_SAMPLINGTIME_47CYCLES_5);
 8001618:	2204      	movs	r2, #4
 800161a:	491b      	ldr	r1, [pc, #108]	@ (8001688 <MX_ADC2_Init+0x1e8>)
 800161c:	4816      	ldr	r0, [pc, #88]	@ (8001678 <MX_ADC2_Init+0x1d8>)
 800161e:	f7ff f8c7 	bl	80007b0 <LL_ADC_SetChannelSamplingTime>
  LL_ADC_SetChannelSingleDiff(ADC2, LL_ADC_CHANNEL_17, LL_ADC_SINGLE_ENDED);
 8001622:	227f      	movs	r2, #127	@ 0x7f
 8001624:	4918      	ldr	r1, [pc, #96]	@ (8001688 <MX_ADC2_Init+0x1e8>)
 8001626:	4814      	ldr	r0, [pc, #80]	@ (8001678 <MX_ADC2_Init+0x1d8>)
 8001628:	f7ff f8ee 	bl	8000808 <LL_ADC_SetChannelSingleDiff>

  /** Configure Regular Channel
  */
  LL_ADC_REG_SetSequencerRanks(ADC2, LL_ADC_REG_RANK_2, LL_ADC_CHANNEL_13);
 800162c:	4a17      	ldr	r2, [pc, #92]	@ (800168c <MX_ADC2_Init+0x1ec>)
 800162e:	210c      	movs	r1, #12
 8001630:	4811      	ldr	r0, [pc, #68]	@ (8001678 <MX_ADC2_Init+0x1d8>)
 8001632:	f7ff f891 	bl	8000758 <LL_ADC_REG_SetSequencerRanks>
  LL_ADC_SetChannelSamplingTime(ADC2, LL_ADC_CHANNEL_13, LL_ADC_SAMPLINGTIME_47CYCLES_5);
 8001636:	2204      	movs	r2, #4
 8001638:	4914      	ldr	r1, [pc, #80]	@ (800168c <MX_ADC2_Init+0x1ec>)
 800163a:	480f      	ldr	r0, [pc, #60]	@ (8001678 <MX_ADC2_Init+0x1d8>)
 800163c:	f7ff f8b8 	bl	80007b0 <LL_ADC_SetChannelSamplingTime>
  LL_ADC_SetChannelSingleDiff(ADC2, LL_ADC_CHANNEL_13, LL_ADC_SINGLE_ENDED);
 8001640:	227f      	movs	r2, #127	@ 0x7f
 8001642:	4912      	ldr	r1, [pc, #72]	@ (800168c <MX_ADC2_Init+0x1ec>)
 8001644:	480c      	ldr	r0, [pc, #48]	@ (8001678 <MX_ADC2_Init+0x1d8>)
 8001646:	f7ff f8df 	bl	8000808 <LL_ADC_SetChannelSingleDiff>

  /** Configure Regular Channel
  */
  LL_ADC_REG_SetSequencerRanks(ADC2, LL_ADC_REG_RANK_3, LL_ADC_CHANNEL_3);
 800164a:	4a11      	ldr	r2, [pc, #68]	@ (8001690 <MX_ADC2_Init+0x1f0>)
 800164c:	2112      	movs	r1, #18
 800164e:	480a      	ldr	r0, [pc, #40]	@ (8001678 <MX_ADC2_Init+0x1d8>)
 8001650:	f7ff f882 	bl	8000758 <LL_ADC_REG_SetSequencerRanks>
  LL_ADC_SetChannelSamplingTime(ADC2, LL_ADC_CHANNEL_3, LL_ADC_SAMPLINGTIME_47CYCLES_5);
 8001654:	2204      	movs	r2, #4
 8001656:	490e      	ldr	r1, [pc, #56]	@ (8001690 <MX_ADC2_Init+0x1f0>)
 8001658:	4807      	ldr	r0, [pc, #28]	@ (8001678 <MX_ADC2_Init+0x1d8>)
 800165a:	f7ff f8a9 	bl	80007b0 <LL_ADC_SetChannelSamplingTime>
  LL_ADC_SetChannelSingleDiff(ADC2, LL_ADC_CHANNEL_3, LL_ADC_SINGLE_ENDED);
 800165e:	227f      	movs	r2, #127	@ 0x7f
 8001660:	490b      	ldr	r1, [pc, #44]	@ (8001690 <MX_ADC2_Init+0x1f0>)
 8001662:	4805      	ldr	r0, [pc, #20]	@ (8001678 <MX_ADC2_Init+0x1d8>)
 8001664:	f7ff f8d0 	bl	8000808 <LL_ADC_SetChannelSingleDiff>
  /* USER CODE BEGIN ADC2_Init 2 */

  /* USER CODE END ADC2_Init 2 */

}
 8001668:	bf00      	nop
 800166a:	3740      	adds	r7, #64	@ 0x40
 800166c:	46bd      	mov	sp, r7
 800166e:	bd80      	pop	{r7, pc}
 8001670:	001c0001 	.word	0x001c0001
 8001674:	40020000 	.word	0x40020000
 8001678:	50000100 	.word	0x50000100
 800167c:	20000028 	.word	0x20000028
 8001680:	053e2d63 	.word	0x053e2d63
 8001684:	cccccccd 	.word	0xcccccccd
 8001688:	47520000 	.word	0x47520000
 800168c:	36902000 	.word	0x36902000
 8001690:	0c900008 	.word	0x0c900008

08001694 <MX_TIM2_Init>:
  * @brief TIM2 Initialization Function
  * @param None
  * @retval None
  */
static void MX_TIM2_Init(void)
{
 8001694:	b580      	push	{r7, lr}
 8001696:	b086      	sub	sp, #24
 8001698:	af00      	add	r7, sp, #0

  /* USER CODE BEGIN TIM2_Init 0 */

  /* USER CODE END TIM2_Init 0 */

  LL_TIM_InitTypeDef TIM_InitStruct = {0};
 800169a:	1d3b      	adds	r3, r7, #4
 800169c:	2200      	movs	r2, #0
 800169e:	601a      	str	r2, [r3, #0]
 80016a0:	605a      	str	r2, [r3, #4]
 80016a2:	609a      	str	r2, [r3, #8]
 80016a4:	60da      	str	r2, [r3, #12]
 80016a6:	611a      	str	r2, [r3, #16]

  /* Peripheral clock enable */
  LL_APB1_GRP1_EnableClock(LL_APB1_GRP1_PERIPH_TIM2);
 80016a8:	2001      	movs	r0, #1
 80016aa:	f7ff fbb7 	bl	8000e1c <LL_APB1_GRP1_EnableClock>

  /* TIM2 interrupt Init */
  NVIC_SetPriority(TIM2_IRQn, NVIC_EncodePriority(NVIC_GetPriorityGrouping(),0, 0));
 80016ae:	f7fe ffa5 	bl	80005fc <__NVIC_GetPriorityGrouping>
 80016b2:	4603      	mov	r3, r0
 80016b4:	2200      	movs	r2, #0
 80016b6:	2100      	movs	r1, #0
 80016b8:	4618      	mov	r0, r3
 80016ba:	f7fe fff5 	bl	80006a8 <NVIC_EncodePriority>
 80016be:	4603      	mov	r3, r0
 80016c0:	4619      	mov	r1, r3
 80016c2:	201c      	movs	r0, #28
 80016c4:	f7fe ffc6 	bl	8000654 <__NVIC_SetPriority>
  NVIC_EnableIRQ(TIM2_IRQn);
 80016c8:	201c      	movs	r0, #28
 80016ca:	f7fe ffa5 	bl	8000618 <__NVIC_EnableIRQ>

  /* USER CODE BEGIN TIM2_Init 1 */

  /* USER CODE END TIM2_Init 1 */
  TIM_InitStruct.Prescaler = 3;
 80016ce:	2303      	movs	r3, #3
 80016d0:	80bb      	strh	r3, [r7, #4]
  TIM_InitStruct.CounterMode = LL_TIM_COUNTERMODE_UP;
 80016d2:	2300      	movs	r3, #0
 80016d4:	60bb      	str	r3, [r7, #8]
  TIM_InitStruct.Autoreload = 37499625;
 80016d6:	4b10      	ldr	r3, [pc, #64]	@ (8001718 <MX_TIM2_Init+0x84>)
 80016d8:	60fb      	str	r3, [r7, #12]
  TIM_InitStruct.ClockDivision = LL_TIM_CLOCKDIVISION_DIV1;
 80016da:	2300      	movs	r3, #0
 80016dc:	613b      	str	r3, [r7, #16]
  LL_TIM_Init(TIM2, &TIM_InitStruct);
 80016de:	1d3b      	adds	r3, r7, #4
 80016e0:	4619      	mov	r1, r3
 80016e2:	f04f 4080 	mov.w	r0, #1073741824	@ 0x40000000
 80016e6:	f001 fead 	bl	8003444 <LL_TIM_Init>
  LL_TIM_DisableARRPreload(TIM2);
 80016ea:	f04f 4080 	mov.w	r0, #1073741824	@ 0x40000000
 80016ee:	f7ff fc0b 	bl	8000f08 <LL_TIM_DisableARRPreload>
  LL_TIM_SetClockSource(TIM2, LL_TIM_CLOCKSOURCE_INTERNAL);
 80016f2:	2100      	movs	r1, #0
 80016f4:	f04f 4080 	mov.w	r0, #1073741824	@ 0x40000000
 80016f8:	f7ff fc16 	bl	8000f28 <LL_TIM_SetClockSource>
  LL_TIM_SetTriggerOutput(TIM2, LL_TIM_TRGO_RESET);
 80016fc:	2100      	movs	r1, #0
 80016fe:	f04f 4080 	mov.w	r0, #1073741824	@ 0x40000000
 8001702:	f7ff fc26 	bl	8000f52 <LL_TIM_SetTriggerOutput>
  LL_TIM_DisableMasterSlaveMode(TIM2);
 8001706:	f04f 4080 	mov.w	r0, #1073741824	@ 0x40000000
 800170a:	f7ff fc37 	bl	8000f7c <LL_TIM_DisableMasterSlaveMode>
  /* USER CODE BEGIN TIM2_Init 2 */

  /* USER CODE END TIM2_Init 2 */

}
 800170e:	bf00      	nop
 8001710:	3718      	adds	r7, #24
 8001712:	46bd      	mov	sp, r7
 8001714:	bd80      	pop	{r7, pc}
 8001716:	bf00      	nop
 8001718:	023c32e9 	.word	0x023c32e9

0800171c <MX_TIM6_Init>:
  * @brief TIM6 Initialization Function
  * @param None
  * @retval None
  */
static void MX_TIM6_Init(void)
{
 800171c:	b580      	push	{r7, lr}
 800171e:	b086      	sub	sp, #24
 8001720:	af00      	add	r7, sp, #0

  /* USER CODE BEGIN TIM6_Init 0 */

  /* USER CODE END TIM6_Init 0 */

  LL_TIM_InitTypeDef TIM_InitStruct = {0};
 8001722:	1d3b      	adds	r3, r7, #4
 8001724:	2200      	movs	r2, #0
 8001726:	601a      	str	r2, [r3, #0]
 8001728:	605a      	str	r2, [r3, #4]
 800172a:	609a      	str	r2, [r3, #8]
 800172c:	60da      	str	r2, [r3, #12]
 800172e:	611a      	str	r2, [r3, #16]

  /* Peripheral clock enable */
  LL_APB1_GRP1_EnableClock(LL_APB1_GRP1_PERIPH_TIM6);
 8001730:	2010      	movs	r0, #16
 8001732:	f7ff fb73 	bl	8000e1c <LL_APB1_GRP1_EnableClock>

  /* TIM6 interrupt Init */
  NVIC_SetPriority(TIM6_DAC_IRQn, NVIC_EncodePriority(NVIC_GetPriorityGrouping(),1, 0));
 8001736:	f7fe ff61 	bl	80005fc <__NVIC_GetPriorityGrouping>
 800173a:	4603      	mov	r3, r0
 800173c:	2200      	movs	r2, #0
 800173e:	2101      	movs	r1, #1
 8001740:	4618      	mov	r0, r3
 8001742:	f7fe ffb1 	bl	80006a8 <NVIC_EncodePriority>
 8001746:	4603      	mov	r3, r0
 8001748:	4619      	mov	r1, r3
 800174a:	2036      	movs	r0, #54	@ 0x36
 800174c:	f7fe ff82 	bl	8000654 <__NVIC_SetPriority>
  NVIC_EnableIRQ(TIM6_DAC_IRQn);
 8001750:	2036      	movs	r0, #54	@ 0x36
 8001752:	f7fe ff61 	bl	8000618 <__NVIC_EnableIRQ>

  /* USER CODE BEGIN TIM6_Init 1 */

  /* USER CODE END TIM6_Init 1 */
  TIM_InitStruct.Prescaler = 149;
 8001756:	2395      	movs	r3, #149	@ 0x95
 8001758:	80bb      	strh	r3, [r7, #4]
  TIM_InitStruct.CounterMode = LL_TIM_COUNTERMODE_UP;
 800175a:	2300      	movs	r3, #0
 800175c:	60bb      	str	r3, [r7, #8]
  TIM_InitStruct.Autoreload = 199;
 800175e:	23c7      	movs	r3, #199	@ 0xc7
 8001760:	60fb      	str	r3, [r7, #12]
  LL_TIM_Init(TIM6, &TIM_InitStruct);
 8001762:	1d3b      	adds	r3, r7, #4
 8001764:	4619      	mov	r1, r3
 8001766:	4808      	ldr	r0, [pc, #32]	@ (8001788 <MX_TIM6_Init+0x6c>)
 8001768:	f001 fe6c 	bl	8003444 <LL_TIM_Init>
  LL_TIM_DisableARRPreload(TIM6);
 800176c:	4806      	ldr	r0, [pc, #24]	@ (8001788 <MX_TIM6_Init+0x6c>)
 800176e:	f7ff fbcb 	bl	8000f08 <LL_TIM_DisableARRPreload>
  LL_TIM_SetTriggerOutput(TIM6, LL_TIM_TRGO_RESET);
 8001772:	2100      	movs	r1, #0
 8001774:	4804      	ldr	r0, [pc, #16]	@ (8001788 <MX_TIM6_Init+0x6c>)
 8001776:	f7ff fbec 	bl	8000f52 <LL_TIM_SetTriggerOutput>
  LL_TIM_DisableMasterSlaveMode(TIM6);
 800177a:	4803      	ldr	r0, [pc, #12]	@ (8001788 <MX_TIM6_Init+0x6c>)
 800177c:	f7ff fbfe 	bl	8000f7c <LL_TIM_DisableMasterSlaveMode>
  /* USER CODE BEGIN TIM6_Init 2 */

  /* USER CODE END TIM6_Init 2 */

}
 8001780:	bf00      	nop
 8001782:	3718      	adds	r7, #24
 8001784:	46bd      	mov	sp, r7
 8001786:	bd80      	pop	{r7, pc}
 8001788:	40001000 	.word	0x40001000

0800178c <MX_USART1_UART_Init>:
  * @brief USART1 Initialization Function
  * @param None
  * @retval None
  */
static void MX_USART1_UART_Init(void)
{
 800178c:	b580      	push	{r7, lr}
 800178e:	b08e      	sub	sp, #56	@ 0x38
 8001790:	af00      	add	r7, sp, #0

  /* USER CODE BEGIN USART1_Init 0 */

  /* USER CODE END USART1_Init 0 */

  LL_USART_InitTypeDef USART_InitStruct = {0};
 8001792:	f107 0318 	add.w	r3, r7, #24
 8001796:	2220      	movs	r2, #32
 8001798:	2100      	movs	r1, #0
 800179a:	4618      	mov	r0, r3
 800179c:	f002 f854 	bl	8003848 <memset>

  LL_GPIO_InitTypeDef GPIO_InitStruct = {0};
 80017a0:	463b      	mov	r3, r7
 80017a2:	2200      	movs	r2, #0
 80017a4:	601a      	str	r2, [r3, #0]
 80017a6:	605a      	str	r2, [r3, #4]
 80017a8:	609a      	str	r2, [r3, #8]
 80017aa:	60da      	str	r2, [r3, #12]
 80017ac:	611a      	str	r2, [r3, #16]
 80017ae:	615a      	str	r2, [r3, #20]

  LL_RCC_SetUSARTClockSource(LL_RCC_USART1_CLKSOURCE_PCLK2);
 80017b0:	f44f 3040 	mov.w	r0, #196608	@ 0x30000
 80017b4:	f7ff fa40 	bl	8000c38 <LL_RCC_SetUSARTClockSource>

  /* Peripheral clock enable */
  LL_APB2_GRP1_EnableClock(LL_APB2_GRP1_PERIPH_USART1);
 80017b8:	f44f 4080 	mov.w	r0, #16384	@ 0x4000
 80017bc:	f7ff fb46 	bl	8000e4c <LL_APB2_GRP1_EnableClock>

  LL_AHB2_GRP1_EnableClock(LL_AHB2_GRP1_PERIPH_GPIOB);
 80017c0:	2002      	movs	r0, #2
 80017c2:	f7ff fb13 	bl	8000dec <LL_AHB2_GRP1_EnableClock>
  /**USART1 GPIO Configuration
  PB6   ------> USART1_TX
  PB7   ------> USART1_RX
  */
  GPIO_InitStruct.Pin = HV_TX_Pin;
 80017c6:	2340      	movs	r3, #64	@ 0x40
 80017c8:	603b      	str	r3, [r7, #0]
  GPIO_InitStruct.Mode = LL_GPIO_MODE_ALTERNATE;
 80017ca:	2302      	movs	r3, #2
 80017cc:	607b      	str	r3, [r7, #4]
  GPIO_InitStruct.Speed = LL_GPIO_SPEED_FREQ_LOW;
 80017ce:	2300      	movs	r3, #0
 80017d0:	60bb      	str	r3, [r7, #8]
  GPIO_InitStruct.OutputType = LL_GPIO_OUTPUT_PUSHPULL;
 80017d2:	2300      	movs	r3, #0
 80017d4:	60fb      	str	r3, [r7, #12]
  GPIO_InitStruct.Pull = LL_GPIO_PULL_NO;
 80017d6:	2300      	movs	r3, #0
 80017d8:	613b      	str	r3, [r7, #16]
  GPIO_InitStruct.Alternate = LL_GPIO_AF_7;
 80017da:	2307      	movs	r3, #7
 80017dc:	617b      	str	r3, [r7, #20]
  LL_GPIO_Init(HV_TX_GPIO_Port, &GPIO_InitStruct);
 80017de:	463b      	mov	r3, r7
 80017e0:	4619      	mov	r1, r3
 80017e2:	484f      	ldr	r0, [pc, #316]	@ (8001920 <MX_USART1_UART_Init+0x194>)
 80017e4:	f001 fb19 	bl	8002e1a <LL_GPIO_Init>

  GPIO_InitStruct.Pin = HV_RX_Pin;
 80017e8:	2380      	movs	r3, #128	@ 0x80
 80017ea:	603b      	str	r3, [r7, #0]
  GPIO_InitStruct.Mode = LL_GPIO_MODE_ALTERNATE;
 80017ec:	2302      	movs	r3, #2
 80017ee:	607b      	str	r3, [r7, #4]
  GPIO_InitStruct.Speed = LL_GPIO_SPEED_FREQ_LOW;
 80017f0:	2300      	movs	r3, #0
 80017f2:	60bb      	str	r3, [r7, #8]
  GPIO_InitStruct.OutputType = LL_GPIO_OUTPUT_PUSHPULL;
 80017f4:	2300      	movs	r3, #0
 80017f6:	60fb      	str	r3, [r7, #12]
  GPIO_InitStruct.Pull = LL_GPIO_PULL_NO;
 80017f8:	2300      	movs	r3, #0
 80017fa:	613b      	str	r3, [r7, #16]
  GPIO_InitStruct.Alternate = LL_GPIO_AF_7;
 80017fc:	2307      	movs	r3, #7
 80017fe:	617b      	str	r3, [r7, #20]
  LL_GPIO_Init(HV_RX_GPIO_Port, &GPIO_InitStruct);
 8001800:	463b      	mov	r3, r7
 8001802:	4619      	mov	r1, r3
 8001804:	4846      	ldr	r0, [pc, #280]	@ (8001920 <MX_USART1_UART_Init+0x194>)
 8001806:	f001 fb08 	bl	8002e1a <LL_GPIO_Init>

  /* USART1 DMA Init */

  /* USART1_TX Init */
  LL_DMA_SetPeriphRequest(DMA1, LL_DMA_CHANNEL_3, LL_DMAMUX_REQ_USART1_TX);
 800180a:	2219      	movs	r2, #25
 800180c:	2102      	movs	r1, #2
 800180e:	4845      	ldr	r0, [pc, #276]	@ (8001924 <MX_USART1_UART_Init+0x198>)
 8001810:	f7ff f966 	bl	8000ae0 <LL_DMA_SetPeriphRequest>

  LL_DMA_SetDataTransferDirection(DMA1, LL_DMA_CHANNEL_3, LL_DMA_DIRECTION_MEMORY_TO_PERIPH);
 8001814:	2210      	movs	r2, #16
 8001816:	2102      	movs	r1, #2
 8001818:	4842      	ldr	r0, [pc, #264]	@ (8001924 <MX_USART1_UART_Init+0x198>)
 800181a:	f7ff f855 	bl	80008c8 <LL_DMA_SetDataTransferDirection>

  LL_DMA_SetChannelPriorityLevel(DMA1, LL_DMA_CHANNEL_3, LL_DMA_PRIORITY_LOW);
 800181e:	2200      	movs	r2, #0
 8001820:	2102      	movs	r1, #2
 8001822:	4840      	ldr	r0, [pc, #256]	@ (8001924 <MX_USART1_UART_Init+0x198>)
 8001824:	f7ff f936 	bl	8000a94 <LL_DMA_SetChannelPriorityLevel>

  LL_DMA_SetMode(DMA1, LL_DMA_CHANNEL_3, LL_DMA_MODE_NORMAL);
 8001828:	2200      	movs	r2, #0
 800182a:	2102      	movs	r1, #2
 800182c:	483d      	ldr	r0, [pc, #244]	@ (8001924 <MX_USART1_UART_Init+0x198>)
 800182e:	f7ff f873 	bl	8000918 <LL_DMA_SetMode>

  LL_DMA_SetPeriphIncMode(DMA1, LL_DMA_CHANNEL_3, LL_DMA_PERIPH_NOINCREMENT);
 8001832:	2200      	movs	r2, #0
 8001834:	2102      	movs	r1, #2
 8001836:	483b      	ldr	r0, [pc, #236]	@ (8001924 <MX_USART1_UART_Init+0x198>)
 8001838:	f7ff f894 	bl	8000964 <LL_DMA_SetPeriphIncMode>

  LL_DMA_SetMemoryIncMode(DMA1, LL_DMA_CHANNEL_3, LL_DMA_MEMORY_INCREMENT);
 800183c:	2280      	movs	r2, #128	@ 0x80
 800183e:	2102      	movs	r1, #2
 8001840:	4838      	ldr	r0, [pc, #224]	@ (8001924 <MX_USART1_UART_Init+0x198>)
 8001842:	f7ff f8b5 	bl	80009b0 <LL_DMA_SetMemoryIncMode>

  LL_DMA_SetPeriphSize(DMA1, LL_DMA_CHANNEL_3, LL_DMA_PDATAALIGN_BYTE);
 8001846:	2200      	movs	r2, #0
 8001848:	2102      	movs	r1, #2
 800184a:	4836      	ldr	r0, [pc, #216]	@ (8001924 <MX_USART1_UART_Init+0x198>)
 800184c:	f7ff f8d6 	bl	80009fc <LL_DMA_SetPeriphSize>

  LL_DMA_SetMemorySize(DMA1, LL_DMA_CHANNEL_3, LL_DMA_MDATAALIGN_BYTE);
 8001850:	2200      	movs	r2, #0
 8001852:	2102      	movs	r1, #2
 8001854:	4833      	ldr	r0, [pc, #204]	@ (8001924 <MX_USART1_UART_Init+0x198>)
 8001856:	f7ff f8f7 	bl	8000a48 <LL_DMA_SetMemorySize>

  /* USART1_RX Init */
  LL_DMA_SetPeriphRequest(DMA1, LL_DMA_CHANNEL_4, LL_DMAMUX_REQ_USART1_RX);
 800185a:	2218      	movs	r2, #24
 800185c:	2103      	movs	r1, #3
 800185e:	4831      	ldr	r0, [pc, #196]	@ (8001924 <MX_USART1_UART_Init+0x198>)
 8001860:	f7ff f93e 	bl	8000ae0 <LL_DMA_SetPeriphRequest>

  LL_DMA_SetDataTransferDirection(DMA1, LL_DMA_CHANNEL_4, LL_DMA_DIRECTION_PERIPH_TO_MEMORY);
 8001864:	2200      	movs	r2, #0
 8001866:	2103      	movs	r1, #3
 8001868:	482e      	ldr	r0, [pc, #184]	@ (8001924 <MX_USART1_UART_Init+0x198>)
 800186a:	f7ff f82d 	bl	80008c8 <LL_DMA_SetDataTransferDirection>

  LL_DMA_SetChannelPriorityLevel(DMA1, LL_DMA_CHANNEL_4, LL_DMA_PRIORITY_LOW);
 800186e:	2200      	movs	r2, #0
 8001870:	2103      	movs	r1, #3
 8001872:	482c      	ldr	r0, [pc, #176]	@ (8001924 <MX_USART1_UART_Init+0x198>)
 8001874:	f7ff f90e 	bl	8000a94 <LL_DMA_SetChannelPriorityLevel>

  LL_DMA_SetMode(DMA1, LL_DMA_CHANNEL_4, LL_DMA_MODE_NORMAL);
 8001878:	2200      	movs	r2, #0
 800187a:	2103      	movs	r1, #3
 800187c:	4829      	ldr	r0, [pc, #164]	@ (8001924 <MX_USART1_UART_Init+0x198>)
 800187e:	f7ff f84b 	bl	8000918 <LL_DMA_SetMode>

  LL_DMA_SetPeriphIncMode(DMA1, LL_DMA_CHANNEL_4, LL_DMA_PERIPH_NOINCREMENT);
 8001882:	2200      	movs	r2, #0
 8001884:	2103      	movs	r1, #3
 8001886:	4827      	ldr	r0, [pc, #156]	@ (8001924 <MX_USART1_UART_Init+0x198>)
 8001888:	f7ff f86c 	bl	8000964 <LL_DMA_SetPeriphIncMode>

  LL_DMA_SetMemoryIncMode(DMA1, LL_DMA_CHANNEL_4, LL_DMA_MEMORY_INCREMENT);
 800188c:	2280      	movs	r2, #128	@ 0x80
 800188e:	2103      	movs	r1, #3
 8001890:	4824      	ldr	r0, [pc, #144]	@ (8001924 <MX_USART1_UART_Init+0x198>)
 8001892:	f7ff f88d 	bl	80009b0 <LL_DMA_SetMemoryIncMode>

  LL_DMA_SetPeriphSize(DMA1, LL_DMA_CHANNEL_4, LL_DMA_PDATAALIGN_BYTE);
 8001896:	2200      	movs	r2, #0
 8001898:	2103      	movs	r1, #3
 800189a:	4822      	ldr	r0, [pc, #136]	@ (8001924 <MX_USART1_UART_Init+0x198>)
 800189c:	f7ff f8ae 	bl	80009fc <LL_DMA_SetPeriphSize>

  LL_DMA_SetMemorySize(DMA1, LL_DMA_CHANNEL_4, LL_DMA_MDATAALIGN_BYTE);
 80018a0:	2200      	movs	r2, #0
 80018a2:	2103      	movs	r1, #3
 80018a4:	481f      	ldr	r0, [pc, #124]	@ (8001924 <MX_USART1_UART_Init+0x198>)
 80018a6:	f7ff f8cf 	bl	8000a48 <LL_DMA_SetMemorySize>

  /* USER CODE BEGIN USART1_Init 1 */

  /* USER CODE END USART1_Init 1 */
  USART_InitStruct.PrescalerValue = LL_USART_PRESCALER_DIV1;
 80018aa:	2300      	movs	r3, #0
 80018ac:	61bb      	str	r3, [r7, #24]
  USART_InitStruct.BaudRate = 9600;
 80018ae:	f44f 5316 	mov.w	r3, #9600	@ 0x2580
 80018b2:	61fb      	str	r3, [r7, #28]
  USART_InitStruct.DataWidth = LL_USART_DATAWIDTH_8B;
 80018b4:	2300      	movs	r3, #0
 80018b6:	623b      	str	r3, [r7, #32]
  USART_InitStruct.StopBits = LL_USART_STOPBITS_1;
 80018b8:	2300      	movs	r3, #0
 80018ba:	627b      	str	r3, [r7, #36]	@ 0x24
  USART_InitStruct.Parity = LL_USART_PARITY_NONE;
 80018bc:	2300      	movs	r3, #0
 80018be:	62bb      	str	r3, [r7, #40]	@ 0x28
  USART_InitStruct.TransferDirection = LL_USART_DIRECTION_TX_RX;
 80018c0:	230c      	movs	r3, #12
 80018c2:	62fb      	str	r3, [r7, #44]	@ 0x2c
  USART_InitStruct.HardwareFlowControl = LL_USART_HWCONTROL_NONE;
 80018c4:	2300      	movs	r3, #0
 80018c6:	633b      	str	r3, [r7, #48]	@ 0x30
  USART_InitStruct.OverSampling = LL_USART_OVERSAMPLING_16;
 80018c8:	2300      	movs	r3, #0
 80018ca:	637b      	str	r3, [r7, #52]	@ 0x34
  LL_USART_Init(USART1, &USART_InitStruct);
 80018cc:	f107 0318 	add.w	r3, r7, #24
 80018d0:	4619      	mov	r1, r3
 80018d2:	4815      	ldr	r0, [pc, #84]	@ (8001928 <MX_USART1_UART_Init+0x19c>)
 80018d4:	f001 fede 	bl	8003694 <LL_USART_Init>
  LL_USART_SetTXFIFOThreshold(USART1, LL_USART_FIFOTHRESHOLD_1_8);
 80018d8:	2100      	movs	r1, #0
 80018da:	4813      	ldr	r0, [pc, #76]	@ (8001928 <MX_USART1_UART_Init+0x19c>)
 80018dc:	f7ff fb7e 	bl	8000fdc <LL_USART_SetTXFIFOThreshold>
  LL_USART_SetRXFIFOThreshold(USART1, LL_USART_FIFOTHRESHOLD_1_8);
 80018e0:	2100      	movs	r1, #0
 80018e2:	4811      	ldr	r0, [pc, #68]	@ (8001928 <MX_USART1_UART_Init+0x19c>)
 80018e4:	f7ff fba1 	bl	800102a <LL_USART_SetRXFIFOThreshold>
  LL_USART_DisableFIFO(USART1);
 80018e8:	480f      	ldr	r0, [pc, #60]	@ (8001928 <MX_USART1_UART_Init+0x19c>)
 80018ea:	f7ff fb67 	bl	8000fbc <LL_USART_DisableFIFO>
  LL_USART_ConfigAsyncMode(USART1);
 80018ee:	480e      	ldr	r0, [pc, #56]	@ (8001928 <MX_USART1_UART_Init+0x19c>)
 80018f0:	f7ff fbc2 	bl	8001078 <LL_USART_ConfigAsyncMode>

  /* USER CODE BEGIN WKUPType USART1 */

  /* USER CODE END WKUPType USART1 */

  LL_USART_Enable(USART1);
 80018f4:	480c      	ldr	r0, [pc, #48]	@ (8001928 <MX_USART1_UART_Init+0x19c>)
 80018f6:	f7ff fb51 	bl	8000f9c <LL_USART_Enable>

  /* Polling USART1 initialisation */
  while((!(LL_USART_IsActiveFlag_TEACK(USART1))) || (!(LL_USART_IsActiveFlag_REACK(USART1))))
 80018fa:	bf00      	nop
 80018fc:	480a      	ldr	r0, [pc, #40]	@ (8001928 <MX_USART1_UART_Init+0x19c>)
 80018fe:	f7ff fbd1 	bl	80010a4 <LL_USART_IsActiveFlag_TEACK>
 8001902:	4603      	mov	r3, r0
 8001904:	2b00      	cmp	r3, #0
 8001906:	d0f9      	beq.n	80018fc <MX_USART1_UART_Init+0x170>
 8001908:	4807      	ldr	r0, [pc, #28]	@ (8001928 <MX_USART1_UART_Init+0x19c>)
 800190a:	f7ff fbdf 	bl	80010cc <LL_USART_IsActiveFlag_REACK>
 800190e:	4603      	mov	r3, r0
 8001910:	2b00      	cmp	r3, #0
 8001912:	d0f3      	beq.n	80018fc <MX_USART1_UART_Init+0x170>
  }
  /* USER CODE BEGIN USART1_Init 2 */

  /* USER CODE END USART1_Init 2 */

}
 8001914:	bf00      	nop
 8001916:	bf00      	nop
 8001918:	3738      	adds	r7, #56	@ 0x38
 800191a:	46bd      	mov	sp, r7
 800191c:	bd80      	pop	{r7, pc}
 800191e:	bf00      	nop
 8001920:	48000400 	.word	0x48000400
 8001924:	40020000 	.word	0x40020000
 8001928:	40013800 	.word	0x40013800

0800192c <MX_DMA_Init>:

/**
  * Enable DMA controller clock
  */
static void MX_DMA_Init(void)
{
 800192c:	b580      	push	{r7, lr}
 800192e:	af00      	add	r7, sp, #0

  /* Init with LL driver */
  /* DMA controller clock enable */
  LL_AHB1_GRP1_EnableClock(LL_AHB1_GRP1_PERIPH_DMAMUX1);
 8001930:	2004      	movs	r0, #4
 8001932:	f7ff fa43 	bl	8000dbc <LL_AHB1_GRP1_EnableClock>
  LL_AHB1_GRP1_EnableClock(LL_AHB1_GRP1_PERIPH_DMA1);
 8001936:	2001      	movs	r0, #1
 8001938:	f7ff fa40 	bl	8000dbc <LL_AHB1_GRP1_EnableClock>

  /* DMA interrupt init */
  /* DMA1_Channel1_IRQn interrupt configuration */
  NVIC_SetPriority(DMA1_Channel1_IRQn, NVIC_EncodePriority(NVIC_GetPriorityGrouping(),2, 0));
 800193c:	f7fe fe5e 	bl	80005fc <__NVIC_GetPriorityGrouping>
 8001940:	4603      	mov	r3, r0
 8001942:	2200      	movs	r2, #0
 8001944:	2102      	movs	r1, #2
 8001946:	4618      	mov	r0, r3
 8001948:	f7fe feae 	bl	80006a8 <NVIC_EncodePriority>
 800194c:	4603      	mov	r3, r0
 800194e:	4619      	mov	r1, r3
 8001950:	200b      	movs	r0, #11
 8001952:	f7fe fe7f 	bl	8000654 <__NVIC_SetPriority>
  NVIC_EnableIRQ(DMA1_Channel1_IRQn);
 8001956:	200b      	movs	r0, #11
 8001958:	f7fe fe5e 	bl	8000618 <__NVIC_EnableIRQ>
  /* DMA1_Channel2_IRQn interrupt configuration */
  NVIC_SetPriority(DMA1_Channel2_IRQn, NVIC_EncodePriority(NVIC_GetPriorityGrouping(),2, 0));
 800195c:	f7fe fe4e 	bl	80005fc <__NVIC_GetPriorityGrouping>
 8001960:	4603      	mov	r3, r0
 8001962:	2200      	movs	r2, #0
 8001964:	2102      	movs	r1, #2
 8001966:	4618      	mov	r0, r3
 8001968:	f7fe fe9e 	bl	80006a8 <NVIC_EncodePriority>
 800196c:	4603      	mov	r3, r0
 800196e:	4619      	mov	r1, r3
 8001970:	200c      	movs	r0, #12
 8001972:	f7fe fe6f 	bl	8000654 <__NVIC_SetPriority>
  NVIC_EnableIRQ(DMA1_Channel2_IRQn);
 8001976:	200c      	movs	r0, #12
 8001978:	f7fe fe4e 	bl	8000618 <__NVIC_EnableIRQ>
  /* DMA1_Channel3_IRQn interrupt configuration */
  NVIC_SetPriority(DMA1_Channel3_IRQn, NVIC_EncodePriority(NVIC_GetPriorityGrouping(),2, 0));
 800197c:	f7fe fe3e 	bl	80005fc <__NVIC_GetPriorityGrouping>
 8001980:	4603      	mov	r3, r0
 8001982:	2200      	movs	r2, #0
 8001984:	2102      	movs	r1, #2
 8001986:	4618      	mov	r0, r3
 8001988:	f7fe fe8e 	bl	80006a8 <NVIC_EncodePriority>
 800198c:	4603      	mov	r3, r0
 800198e:	4619      	mov	r1, r3
 8001990:	200d      	movs	r0, #13
 8001992:	f7fe fe5f 	bl	8000654 <__NVIC_SetPriority>
  NVIC_EnableIRQ(DMA1_Channel3_IRQn);
 8001996:	200d      	movs	r0, #13
 8001998:	f7fe fe3e 	bl	8000618 <__NVIC_EnableIRQ>
  /* DMA1_Channel4_IRQn interrupt configuration */
  NVIC_SetPriority(DMA1_Channel4_IRQn, NVIC_EncodePriority(NVIC_GetPriorityGrouping(),2, 0));
 800199c:	f7fe fe2e 	bl	80005fc <__NVIC_GetPriorityGrouping>
 80019a0:	4603      	mov	r3, r0
 80019a2:	2200      	movs	r2, #0
 80019a4:	2102      	movs	r1, #2
 80019a6:	4618      	mov	r0, r3
 80019a8:	f7fe fe7e 	bl	80006a8 <NVIC_EncodePriority>
 80019ac:	4603      	mov	r3, r0
 80019ae:	4619      	mov	r1, r3
 80019b0:	200e      	movs	r0, #14
 80019b2:	f7fe fe4f 	bl	8000654 <__NVIC_SetPriority>
  NVIC_EnableIRQ(DMA1_Channel4_IRQn);
 80019b6:	200e      	movs	r0, #14
 80019b8:	f7fe fe2e 	bl	8000618 <__NVIC_EnableIRQ>

}
 80019bc:	bf00      	nop
 80019be:	bd80      	pop	{r7, pc}

080019c0 <MX_GPIO_Init>:
  * @brief GPIO Initialization Function
  * @param None
  * @retval None
  */
static void MX_GPIO_Init(void)
{
 80019c0:	b580      	push	{r7, lr}
 80019c2:	b086      	sub	sp, #24
 80019c4:	af00      	add	r7, sp, #0
  LL_GPIO_InitTypeDef GPIO_InitStruct = {0};
 80019c6:	463b      	mov	r3, r7
 80019c8:	2200      	movs	r2, #0
 80019ca:	601a      	str	r2, [r3, #0]
 80019cc:	605a      	str	r2, [r3, #4]
 80019ce:	609a      	str	r2, [r3, #8]
 80019d0:	60da      	str	r2, [r3, #12]
 80019d2:	611a      	str	r2, [r3, #16]
 80019d4:	615a      	str	r2, [r3, #20]
  /* USER CODE BEGIN MX_GPIO_Init_1 */

  /* USER CODE END MX_GPIO_Init_1 */

  /* GPIO Ports Clock Enable */
  LL_AHB2_GRP1_EnableClock(LL_AHB2_GRP1_PERIPH_GPIOF);
 80019d6:	2020      	movs	r0, #32
 80019d8:	f7ff fa08 	bl	8000dec <LL_AHB2_GRP1_EnableClock>
  LL_AHB2_GRP1_EnableClock(LL_AHB2_GRP1_PERIPH_GPIOA);
 80019dc:	2001      	movs	r0, #1
 80019de:	f7ff fa05 	bl	8000dec <LL_AHB2_GRP1_EnableClock>
  LL_AHB2_GRP1_EnableClock(LL_AHB2_GRP1_PERIPH_GPIOB);
 80019e2:	2002      	movs	r0, #2
 80019e4:	f7ff fa02 	bl	8000dec <LL_AHB2_GRP1_EnableClock>

  /**/
  LL_GPIO_ResetOutputPin(TP511_GPIO_Port, TP511_Pin);
 80019e8:	2180      	movs	r1, #128	@ 0x80
 80019ea:	f04f 4090 	mov.w	r0, #1207959552	@ 0x48000000
 80019ee:	f7ff fb81 	bl	80010f4 <LL_GPIO_ResetOutputPin>

  /**/
  LL_GPIO_ResetOutputPin(TP506_GPIO_Port, TP506_Pin);
 80019f2:	2101      	movs	r1, #1
 80019f4:	485d      	ldr	r0, [pc, #372]	@ (8001b6c <MX_GPIO_Init+0x1ac>)
 80019f6:	f7ff fb7d 	bl	80010f4 <LL_GPIO_ResetOutputPin>

  /**/
  LL_GPIO_ResetOutputPin(ST_LED_GPIO_Port, ST_LED_Pin);
 80019fa:	f44f 7180 	mov.w	r1, #256	@ 0x100
 80019fe:	f04f 4090 	mov.w	r0, #1207959552	@ 0x48000000
 8001a02:	f7ff fb77 	bl	80010f4 <LL_GPIO_ResetOutputPin>

  /**/
  LL_GPIO_ResetOutputPin(LAMP_EN_GPIO_Port, LAMP_EN_Pin);
 8001a06:	f44f 6100 	mov.w	r1, #2048	@ 0x800
 8001a0a:	f04f 4090 	mov.w	r0, #1207959552	@ 0x48000000
 8001a0e:	f7ff fb71 	bl	80010f4 <LL_GPIO_ResetOutputPin>

  /**/
  LL_GPIO_ResetOutputPin(TP516_GPIO_Port, TP516_Pin);
 8001a12:	f44f 5180 	mov.w	r1, #4096	@ 0x1000
 8001a16:	f04f 4090 	mov.w	r0, #1207959552	@ 0x48000000
 8001a1a:	f7ff fb6b 	bl	80010f4 <LL_GPIO_ResetOutputPin>

  /**/
  LL_GPIO_ResetOutputPin(GPIOA, LL_GPIO_PIN_15);
 8001a1e:	f44f 4100 	mov.w	r1, #32768	@ 0x8000
 8001a22:	f04f 4090 	mov.w	r0, #1207959552	@ 0x48000000
 8001a26:	f7ff fb65 	bl	80010f4 <LL_GPIO_ResetOutputPin>

  /**/
  LL_GPIO_ResetOutputPin(TP508_GPIO_Port, TP508_Pin);
 8001a2a:	2108      	movs	r1, #8
 8001a2c:	484f      	ldr	r0, [pc, #316]	@ (8001b6c <MX_GPIO_Init+0x1ac>)
 8001a2e:	f7ff fb61 	bl	80010f4 <LL_GPIO_ResetOutputPin>

  /**/
  LL_GPIO_ResetOutputPin(TP510_GPIO_Port, TP510_Pin);
 8001a32:	2110      	movs	r1, #16
 8001a34:	484d      	ldr	r0, [pc, #308]	@ (8001b6c <MX_GPIO_Init+0x1ac>)
 8001a36:	f7ff fb5d 	bl	80010f4 <LL_GPIO_ResetOutputPin>

  /**/
  LL_GPIO_ResetOutputPin(TP512_GPIO_Port, TP512_Pin);
 8001a3a:	2120      	movs	r1, #32
 8001a3c:	484b      	ldr	r0, [pc, #300]	@ (8001b6c <MX_GPIO_Init+0x1ac>)
 8001a3e:	f7ff fb59 	bl	80010f4 <LL_GPIO_ResetOutputPin>

  /**/
  GPIO_InitStruct.Pin = TP511_Pin;
 8001a42:	2380      	movs	r3, #128	@ 0x80
 8001a44:	603b      	str	r3, [r7, #0]
  GPIO_InitStruct.Mode = LL_GPIO_MODE_OUTPUT;
 8001a46:	2301      	movs	r3, #1
 8001a48:	607b      	str	r3, [r7, #4]
  GPIO_InitStruct.Speed = LL_GPIO_SPEED_FREQ_LOW;
 8001a4a:	2300      	movs	r3, #0
 8001a4c:	60bb      	str	r3, [r7, #8]
  GPIO_InitStruct.OutputType = LL_GPIO_OUTPUT_PUSHPULL;
 8001a4e:	2300      	movs	r3, #0
 8001a50:	60fb      	str	r3, [r7, #12]
  GPIO_InitStruct.Pull = LL_GPIO_PULL_NO;
 8001a52:	2300      	movs	r3, #0
 8001a54:	613b      	str	r3, [r7, #16]
  LL_GPIO_Init(TP511_GPIO_Port, &GPIO_InitStruct);
 8001a56:	463b      	mov	r3, r7
 8001a58:	4619      	mov	r1, r3
 8001a5a:	f04f 4090 	mov.w	r0, #1207959552	@ 0x48000000
 8001a5e:	f001 f9dc 	bl	8002e1a <LL_GPIO_Init>

  /**/
  GPIO_InitStruct.Pin = TP506_Pin;
 8001a62:	2301      	movs	r3, #1
 8001a64:	603b      	str	r3, [r7, #0]
  GPIO_InitStruct.Mode = LL_GPIO_MODE_OUTPUT;
 8001a66:	2301      	movs	r3, #1
 8001a68:	607b      	str	r3, [r7, #4]
  GPIO_InitStruct.Speed = LL_GPIO_SPEED_FREQ_LOW;
 8001a6a:	2300      	movs	r3, #0
 8001a6c:	60bb      	str	r3, [r7, #8]
  GPIO_InitStruct.OutputType = LL_GPIO_OUTPUT_PUSHPULL;
 8001a6e:	2300      	movs	r3, #0
 8001a70:	60fb      	str	r3, [r7, #12]
  GPIO_InitStruct.Pull = LL_GPIO_PULL_NO;
 8001a72:	2300      	movs	r3, #0
 8001a74:	613b      	str	r3, [r7, #16]
  LL_GPIO_Init(TP506_GPIO_Port, &GPIO_InitStruct);
 8001a76:	463b      	mov	r3, r7
 8001a78:	4619      	mov	r1, r3
 8001a7a:	483c      	ldr	r0, [pc, #240]	@ (8001b6c <MX_GPIO_Init+0x1ac>)
 8001a7c:	f001 f9cd 	bl	8002e1a <LL_GPIO_Init>

  /**/
  GPIO_InitStruct.Pin = ST_LED_Pin;
 8001a80:	f44f 7380 	mov.w	r3, #256	@ 0x100
 8001a84:	603b      	str	r3, [r7, #0]
  GPIO_InitStruct.Mode = LL_GPIO_MODE_OUTPUT;
 8001a86:	2301      	movs	r3, #1
 8001a88:	607b      	str	r3, [r7, #4]
  GPIO_InitStruct.Speed = LL_GPIO_SPEED_FREQ_LOW;
 8001a8a:	2300      	movs	r3, #0
 8001a8c:	60bb      	str	r3, [r7, #8]
  GPIO_InitStruct.OutputType = LL_GPIO_OUTPUT_PUSHPULL;
 8001a8e:	2300      	movs	r3, #0
 8001a90:	60fb      	str	r3, [r7, #12]
  GPIO_InitStruct.Pull = LL_GPIO_PULL_NO;
 8001a92:	2300      	movs	r3, #0
 8001a94:	613b      	str	r3, [r7, #16]
  LL_GPIO_Init(ST_LED_GPIO_Port, &GPIO_InitStruct);
 8001a96:	463b      	mov	r3, r7
 8001a98:	4619      	mov	r1, r3
 8001a9a:	f04f 4090 	mov.w	r0, #1207959552	@ 0x48000000
 8001a9e:	f001 f9bc 	bl	8002e1a <LL_GPIO_Init>

  /**/
  GPIO_InitStruct.Pin = LAMP_EN_Pin;
 8001aa2:	f44f 6300 	mov.w	r3, #2048	@ 0x800
 8001aa6:	603b      	str	r3, [r7, #0]
  GPIO_InitStruct.Mode = LL_GPIO_MODE_OUTPUT;
 8001aa8:	2301      	movs	r3, #1
 8001aaa:	607b      	str	r3, [r7, #4]
  GPIO_InitStruct.Speed = LL_GPIO_SPEED_FREQ_LOW;
 8001aac:	2300      	movs	r3, #0
 8001aae:	60bb      	str	r3, [r7, #8]
  GPIO_InitStruct.OutputType = LL_GPIO_OUTPUT_PUSHPULL;
 8001ab0:	2300      	movs	r3, #0
 8001ab2:	60fb      	str	r3, [r7, #12]
  GPIO_InitStruct.Pull = LL_GPIO_PULL_NO;
 8001ab4:	2300      	movs	r3, #0
 8001ab6:	613b      	str	r3, [r7, #16]
  LL_GPIO_Init(LAMP_EN_GPIO_Port, &GPIO_InitStruct);
 8001ab8:	463b      	mov	r3, r7
 8001aba:	4619      	mov	r1, r3
 8001abc:	f04f 4090 	mov.w	r0, #1207959552	@ 0x48000000
 8001ac0:	f001 f9ab 	bl	8002e1a <LL_GPIO_Init>

  /**/
  GPIO_InitStruct.Pin = TP516_Pin;
 8001ac4:	f44f 5380 	mov.w	r3, #4096	@ 0x1000
 8001ac8:	603b      	str	r3, [r7, #0]
  GPIO_InitStruct.Mode = LL_GPIO_MODE_OUTPUT;
 8001aca:	2301      	movs	r3, #1
 8001acc:	607b      	str	r3, [r7, #4]
  GPIO_InitStruct.Speed = LL_GPIO_SPEED_FREQ_LOW;
 8001ace:	2300      	movs	r3, #0
 8001ad0:	60bb      	str	r3, [r7, #8]
  GPIO_InitStruct.OutputType = LL_GPIO_OUTPUT_PUSHPULL;
 8001ad2:	2300      	movs	r3, #0
 8001ad4:	60fb      	str	r3, [r7, #12]
  GPIO_InitStruct.Pull = LL_GPIO_PULL_NO;
 8001ad6:	2300      	movs	r3, #0
 8001ad8:	613b      	str	r3, [r7, #16]
  LL_GPIO_Init(TP516_GPIO_Port, &GPIO_InitStruct);
 8001ada:	463b      	mov	r3, r7
 8001adc:	4619      	mov	r1, r3
 8001ade:	f04f 4090 	mov.w	r0, #1207959552	@ 0x48000000
 8001ae2:	f001 f99a 	bl	8002e1a <LL_GPIO_Init>

  /**/
  GPIO_InitStruct.Pin = LL_GPIO_PIN_15;
 8001ae6:	f44f 4300 	mov.w	r3, #32768	@ 0x8000
 8001aea:	603b      	str	r3, [r7, #0]
  GPIO_InitStruct.Mode = LL_GPIO_MODE_OUTPUT;
 8001aec:	2301      	movs	r3, #1
 8001aee:	607b      	str	r3, [r7, #4]
  GPIO_InitStruct.Speed = LL_GPIO_SPEED_FREQ_LOW;
 8001af0:	2300      	movs	r3, #0
 8001af2:	60bb      	str	r3, [r7, #8]
  GPIO_InitStruct.OutputType = LL_GPIO_OUTPUT_PUSHPULL;
 8001af4:	2300      	movs	r3, #0
 8001af6:	60fb      	str	r3, [r7, #12]
  GPIO_InitStruct.Pull = LL_GPIO_PULL_NO;
 8001af8:	2300      	movs	r3, #0
 8001afa:	613b      	str	r3, [r7, #16]
  LL_GPIO_Init(GPIOA, &GPIO_InitStruct);
 8001afc:	463b      	mov	r3, r7
 8001afe:	4619      	mov	r1, r3
 8001b00:	f04f 4090 	mov.w	r0, #1207959552	@ 0x48000000
 8001b04:	f001 f989 	bl	8002e1a <LL_GPIO_Init>

  /**/
  GPIO_InitStruct.Pin = TP508_Pin;
 8001b08:	2308      	movs	r3, #8
 8001b0a:	603b      	str	r3, [r7, #0]
  GPIO_InitStruct.Mode = LL_GPIO_MODE_OUTPUT;
 8001b0c:	2301      	movs	r3, #1
 8001b0e:	607b      	str	r3, [r7, #4]
  GPIO_InitStruct.Speed = LL_GPIO_SPEED_FREQ_LOW;
 8001b10:	2300      	movs	r3, #0
 8001b12:	60bb      	str	r3, [r7, #8]
  GPIO_InitStruct.OutputType = LL_GPIO_OUTPUT_PUSHPULL;
 8001b14:	2300      	movs	r3, #0
 8001b16:	60fb      	str	r3, [r7, #12]
  GPIO_InitStruct.Pull = LL_GPIO_PULL_NO;
 8001b18:	2300      	movs	r3, #0
 8001b1a:	613b      	str	r3, [r7, #16]
  LL_GPIO_Init(TP508_GPIO_Port, &GPIO_InitStruct);
 8001b1c:	463b      	mov	r3, r7
 8001b1e:	4619      	mov	r1, r3
 8001b20:	4812      	ldr	r0, [pc, #72]	@ (8001b6c <MX_GPIO_Init+0x1ac>)
 8001b22:	f001 f97a 	bl	8002e1a <LL_GPIO_Init>

  /**/
  GPIO_InitStruct.Pin = TP510_Pin;
 8001b26:	2310      	movs	r3, #16
 8001b28:	603b      	str	r3, [r7, #0]
  GPIO_InitStruct.Mode = LL_GPIO_MODE_OUTPUT;
 8001b2a:	2301      	movs	r3, #1
 8001b2c:	607b      	str	r3, [r7, #4]
  GPIO_InitStruct.Speed = LL_GPIO_SPEED_FREQ_LOW;
 8001b2e:	2300      	movs	r3, #0
 8001b30:	60bb      	str	r3, [r7, #8]
  GPIO_InitStruct.OutputType = LL_GPIO_OUTPUT_PUSHPULL;
 8001b32:	2300      	movs	r3, #0
 8001b34:	60fb      	str	r3, [r7, #12]
  GPIO_InitStruct.Pull = LL_GPIO_PULL_NO;
 8001b36:	2300      	movs	r3, #0
 8001b38:	613b      	str	r3, [r7, #16]
  LL_GPIO_Init(TP510_GPIO_Port, &GPIO_InitStruct);
 8001b3a:	463b      	mov	r3, r7
 8001b3c:	4619      	mov	r1, r3
 8001b3e:	480b      	ldr	r0, [pc, #44]	@ (8001b6c <MX_GPIO_Init+0x1ac>)
 8001b40:	f001 f96b 	bl	8002e1a <LL_GPIO_Init>

  /**/
  GPIO_InitStruct.Pin = TP512_Pin;
 8001b44:	2320      	movs	r3, #32
 8001b46:	603b      	str	r3, [r7, #0]
  GPIO_InitStruct.Mode = LL_GPIO_MODE_OUTPUT;
 8001b48:	2301      	movs	r3, #1
 8001b4a:	607b      	str	r3, [r7, #4]
  GPIO_InitStruct.Speed = LL_GPIO_SPEED_FREQ_LOW;
 8001b4c:	2300      	movs	r3, #0
 8001b4e:	60bb      	str	r3, [r7, #8]
  GPIO_InitStruct.OutputType = LL_GPIO_OUTPUT_PUSHPULL;
 8001b50:	2300      	movs	r3, #0
 8001b52:	60fb      	str	r3, [r7, #12]
  GPIO_InitStruct.Pull = LL_GPIO_PULL_NO;
 8001b54:	2300      	movs	r3, #0
 8001b56:	613b      	str	r3, [r7, #16]
  LL_GPIO_Init(TP512_GPIO_Port, &GPIO_InitStruct);
 8001b58:	463b      	mov	r3, r7
 8001b5a:	4619      	mov	r1, r3
 8001b5c:	4803      	ldr	r0, [pc, #12]	@ (8001b6c <MX_GPIO_Init+0x1ac>)
 8001b5e:	f001 f95c 	bl	8002e1a <LL_GPIO_Init>

  /* USER CODE BEGIN MX_GPIO_Init_2 */

  /* USER CODE END MX_GPIO_Init_2 */
}
 8001b62:	bf00      	nop
 8001b64:	3718      	adds	r7, #24
 8001b66:	46bd      	mov	sp, r7
 8001b68:	bd80      	pop	{r7, pc}
 8001b6a:	bf00      	nop
 8001b6c:	48000400 	.word	0x48000400

08001b70 <NMI_Handler>:
/******************************************************************************/
/**
  * @brief This function handles Non maskable interrupt.
  */
void NMI_Handler(void)
{
 8001b70:	b480      	push	{r7}
 8001b72:	af00      	add	r7, sp, #0
  /* USER CODE BEGIN NonMaskableInt_IRQn 0 */

  /* USER CODE END NonMaskableInt_IRQn 0 */
  /* USER CODE BEGIN NonMaskableInt_IRQn 1 */
   while (1)
 8001b74:	bf00      	nop
 8001b76:	e7fd      	b.n	8001b74 <NMI_Handler+0x4>

08001b78 <HardFault_Handler>:

/**
  * @brief This function handles Hard fault interrupt.
  */
void HardFault_Handler(void)
{
 8001b78:	b480      	push	{r7}
 8001b7a:	af00      	add	r7, sp, #0
  /* USER CODE BEGIN HardFault_IRQn 0 */

  /* USER CODE END HardFault_IRQn 0 */
  while (1)
 8001b7c:	bf00      	nop
 8001b7e:	e7fd      	b.n	8001b7c <HardFault_Handler+0x4>

08001b80 <MemManage_Handler>:

/**
  * @brief This function handles Memory management fault.
  */
void MemManage_Handler(void)
{
 8001b80:	b480      	push	{r7}
 8001b82:	af00      	add	r7, sp, #0
  /* USER CODE BEGIN MemoryManagement_IRQn 0 */

  /* USER CODE END MemoryManagement_IRQn 0 */
  while (1)
 8001b84:	bf00      	nop
 8001b86:	e7fd      	b.n	8001b84 <MemManage_Handler+0x4>

08001b88 <BusFault_Handler>:

/**
  * @brief This function handles Prefetch fault, memory access fault.
  */
void BusFault_Handler(void)
{
 8001b88:	b480      	push	{r7}
 8001b8a:	af00      	add	r7, sp, #0
  /* USER CODE BEGIN BusFault_IRQn 0 */

  /* USER CODE END BusFault_IRQn 0 */
  while (1)
 8001b8c:	bf00      	nop
 8001b8e:	e7fd      	b.n	8001b8c <BusFault_Handler+0x4>

08001b90 <UsageFault_Handler>:

/**
  * @brief This function handles Undefined instruction or illegal state.
  */
void UsageFault_Handler(void)
{
 8001b90:	b480      	push	{r7}
 8001b92:	af00      	add	r7, sp, #0
  /* USER CODE BEGIN UsageFault_IRQn 0 */

  /* USER CODE END UsageFault_IRQn 0 */
  while (1)
 8001b94:	bf00      	nop
 8001b96:	e7fd      	b.n	8001b94 <UsageFault_Handler+0x4>

08001b98 <SVC_Handler>:

/**
  * @brief This function handles System service call via SWI instruction.
  */
void SVC_Handler(void)
{
 8001b98:	b480      	push	{r7}
 8001b9a:	af00      	add	r7, sp, #0

  /* USER CODE END SVCall_IRQn 0 */
  /* USER CODE BEGIN SVCall_IRQn 1 */

  /* USER CODE END SVCall_IRQn 1 */
}
 8001b9c:	bf00      	nop
 8001b9e:	46bd      	mov	sp, r7
 8001ba0:	f85d 7b04 	ldr.w	r7, [sp], #4
 8001ba4:	4770      	bx	lr

08001ba6 <DebugMon_Handler>:

/**
  * @brief This function handles Debug monitor.
  */
void DebugMon_Handler(void)
{
 8001ba6:	b480      	push	{r7}
 8001ba8:	af00      	add	r7, sp, #0

  /* USER CODE END DebugMonitor_IRQn 0 */
  /* USER CODE BEGIN DebugMonitor_IRQn 1 */

  /* USER CODE END DebugMonitor_IRQn 1 */
}
 8001baa:	bf00      	nop
 8001bac:	46bd      	mov	sp, r7
 8001bae:	f85d 7b04 	ldr.w	r7, [sp], #4
 8001bb2:	4770      	bx	lr

08001bb4 <PendSV_Handler>:

/**
  * @brief This function handles Pendable request for system service.
  */
void PendSV_Handler(void)
{
 8001bb4:	b480      	push	{r7}
 8001bb6:	af00      	add	r7, sp, #0

  /* USER CODE END PendSV_IRQn 0 */
  /* USER CODE BEGIN PendSV_IRQn 1 */

  /* USER CODE END PendSV_IRQn 1 */
}
 8001bb8:	bf00      	nop
 8001bba:	46bd      	mov	sp, r7
 8001bbc:	f85d 7b04 	ldr.w	r7, [sp], #4
 8001bc0:	4770      	bx	lr

08001bc2 <SysTick_Handler>:

/**
  * @brief This function handles System tick timer.
  */
void SysTick_Handler(void)
{
 8001bc2:	b480      	push	{r7}
 8001bc4:	af00      	add	r7, sp, #0
  /* USER CODE END SysTick_IRQn 0 */

  /* USER CODE BEGIN SysTick_IRQn 1 */

  /* USER CODE END SysTick_IRQn 1 */
}
 8001bc6:	bf00      	nop
 8001bc8:	46bd      	mov	sp, r7
 8001bca:	f85d 7b04 	ldr.w	r7, [sp], #4
 8001bce:	4770      	bx	lr

08001bd0 <DMA1_Channel1_IRQHandler>:

/**
  * @brief This function handles DMA1 channel1 global interrupt.
  */
void DMA1_Channel1_IRQHandler(void)
{
 8001bd0:	b480      	push	{r7}
 8001bd2:	af00      	add	r7, sp, #0

  /* USER CODE END DMA1_Channel1_IRQn 0 */
  /* USER CODE BEGIN DMA1_Channel1_IRQn 1 */

  /* USER CODE END DMA1_Channel1_IRQn 1 */
}
 8001bd4:	bf00      	nop
 8001bd6:	46bd      	mov	sp, r7
 8001bd8:	f85d 7b04 	ldr.w	r7, [sp], #4
 8001bdc:	4770      	bx	lr

08001bde <DMA1_Channel2_IRQHandler>:

/**
  * @brief This function handles DMA1 channel2 global interrupt.
  */
void DMA1_Channel2_IRQHandler(void)
{
 8001bde:	b480      	push	{r7}
 8001be0:	af00      	add	r7, sp, #0
	//uDMA1_Channel2_IRQHandler();
  /* USER CODE END DMA1_Channel2_IRQn 0 */
  /* USER CODE BEGIN DMA1_Channel2_IRQn 1 */

  /* USER CODE END DMA1_Channel2_IRQn 1 */
}
 8001be2:	bf00      	nop
 8001be4:	46bd      	mov	sp, r7
 8001be6:	f85d 7b04 	ldr.w	r7, [sp], #4
 8001bea:	4770      	bx	lr

08001bec <DMA1_Channel3_IRQHandler>:

/**
  * @brief This function handles DMA1 channel3 global interrupt.
  */
void DMA1_Channel3_IRQHandler(void)
{
 8001bec:	b580      	push	{r7, lr}
 8001bee:	af00      	add	r7, sp, #0
  /* USER CODE BEGIN DMA1_Channel3_IRQn 0 */
	uDMA1_Channel3_IRQHandler();
 8001bf0:	f000 fb5e 	bl	80022b0 <uDMA1_Channel3_IRQHandler>
  /* USER CODE END DMA1_Channel3_IRQn 0 */
  /* USER CODE BEGIN DMA1_Channel3_IRQn 1 */

  /* USER CODE END DMA1_Channel3_IRQn 1 */
}
 8001bf4:	bf00      	nop
 8001bf6:	bd80      	pop	{r7, pc}

08001bf8 <DMA1_Channel4_IRQHandler>:

/**
  * @brief This function handles DMA1 channel4 global interrupt.
  */
void DMA1_Channel4_IRQHandler(void)
{
 8001bf8:	b580      	push	{r7, lr}
 8001bfa:	af00      	add	r7, sp, #0
  /* USER CODE BEGIN DMA1_Channel4_IRQn 0 */
	uDMA1_Channel4_IRQHandler();
 8001bfc:	f000 fb6c 	bl	80022d8 <uDMA1_Channel4_IRQHandler>
  /* USER CODE END DMA1_Channel4_IRQn 0 */
  /* USER CODE BEGIN DMA1_Channel4_IRQn 1 */

  /* USER CODE END DMA1_Channel4_IRQn 1 */
}
 8001c00:	bf00      	nop
 8001c02:	bd80      	pop	{r7, pc}

08001c04 <TIM2_IRQHandler>:

/**
  * @brief This function handles TIM2 global interrupt.
  */
void TIM2_IRQHandler(void)
{
 8001c04:	b580      	push	{r7, lr}
 8001c06:	af00      	add	r7, sp, #0
  /* USER CODE BEGIN TIM2_IRQn 0 */
	uTIM2_IRQHandler();
 8001c08:	f000 fbca 	bl	80023a0 <uTIM2_IRQHandler>
  /* USER CODE END TIM2_IRQn 0 */
  /* USER CODE BEGIN TIM2_IRQn 1 */

  /* USER CODE END TIM2_IRQn 1 */
}
 8001c0c:	bf00      	nop
 8001c0e:	bd80      	pop	{r7, pc}

08001c10 <TIM6_DAC_IRQHandler>:

/**
  * @brief This function handles TIM6 global interrupt, DAC1 and DAC3 channel underrun error interrupts.
  */
void TIM6_DAC_IRQHandler(void)
{
 8001c10:	b580      	push	{r7, lr}
 8001c12:	af00      	add	r7, sp, #0
  /* USER CODE BEGIN TIM6_DAC_IRQn 0 */
	uTIM6_IRQHandler();
 8001c14:	f000 fba0 	bl	8002358 <uTIM6_IRQHandler>
  /* USER CODE END TIM6_DAC_IRQn 0 */
  /* USER CODE BEGIN TIM6_DAC_IRQn 1 */

  /* USER CODE END TIM6_DAC_IRQn 1 */
}
 8001c18:	bf00      	nop
 8001c1a:	bd80      	pop	{r7, pc}

08001c1c <LL_GPIO_SetOutputPin>:
{
 8001c1c:	b480      	push	{r7}
 8001c1e:	b083      	sub	sp, #12
 8001c20:	af00      	add	r7, sp, #0
 8001c22:	6078      	str	r0, [r7, #4]
 8001c24:	6039      	str	r1, [r7, #0]
  WRITE_REG(GPIOx->BSRR, PinMask);
 8001c26:	687b      	ldr	r3, [r7, #4]
 8001c28:	683a      	ldr	r2, [r7, #0]
 8001c2a:	619a      	str	r2, [r3, #24]
}
 8001c2c:	bf00      	nop
 8001c2e:	370c      	adds	r7, #12
 8001c30:	46bd      	mov	sp, r7
 8001c32:	f85d 7b04 	ldr.w	r7, [sp], #4
 8001c36:	4770      	bx	lr

08001c38 <LL_GPIO_ResetOutputPin>:
{
 8001c38:	b480      	push	{r7}
 8001c3a:	b083      	sub	sp, #12
 8001c3c:	af00      	add	r7, sp, #0
 8001c3e:	6078      	str	r0, [r7, #4]
 8001c40:	6039      	str	r1, [r7, #0]
  WRITE_REG(GPIOx->BRR, PinMask);
 8001c42:	687b      	ldr	r3, [r7, #4]
 8001c44:	683a      	ldr	r2, [r7, #0]
 8001c46:	629a      	str	r2, [r3, #40]	@ 0x28
}
 8001c48:	bf00      	nop
 8001c4a:	370c      	adds	r7, #12
 8001c4c:	46bd      	mov	sp, r7
 8001c4e:	f85d 7b04 	ldr.w	r7, [sp], #4
 8001c52:	4770      	bx	lr

08001c54 <LL_GPIO_TogglePin>:
  *         @arg @ref LL_GPIO_PIN_15
  *         @arg @ref LL_GPIO_PIN_ALL
  * @retval None
  */
__STATIC_INLINE void LL_GPIO_TogglePin(GPIO_TypeDef *GPIOx, uint32_t PinMask)
{
 8001c54:	b480      	push	{r7}
 8001c56:	b085      	sub	sp, #20
 8001c58:	af00      	add	r7, sp, #0
 8001c5a:	6078      	str	r0, [r7, #4]
 8001c5c:	6039      	str	r1, [r7, #0]
  uint32_t odr = READ_REG(GPIOx->ODR);
 8001c5e:	687b      	ldr	r3, [r7, #4]
 8001c60:	695b      	ldr	r3, [r3, #20]
 8001c62:	60fb      	str	r3, [r7, #12]
  WRITE_REG(GPIOx->BSRR, ((odr & PinMask) << 16u) | (~odr & PinMask));
 8001c64:	68fa      	ldr	r2, [r7, #12]
 8001c66:	683b      	ldr	r3, [r7, #0]
 8001c68:	4013      	ands	r3, r2
 8001c6a:	041a      	lsls	r2, r3, #16
 8001c6c:	68fb      	ldr	r3, [r7, #12]
 8001c6e:	43d9      	mvns	r1, r3
 8001c70:	683b      	ldr	r3, [r7, #0]
 8001c72:	400b      	ands	r3, r1
 8001c74:	431a      	orrs	r2, r3
 8001c76:	687b      	ldr	r3, [r7, #4]
 8001c78:	619a      	str	r2, [r3, #24]
}
 8001c7a:	bf00      	nop
 8001c7c:	3714      	adds	r7, #20
 8001c7e:	46bd      	mov	sp, r7
 8001c80:	f85d 7b04 	ldr.w	r7, [sp], #4
 8001c84:	4770      	bx	lr

08001c86 <LL_TIM_EnableCounter>:
{
 8001c86:	b480      	push	{r7}
 8001c88:	b083      	sub	sp, #12
 8001c8a:	af00      	add	r7, sp, #0
 8001c8c:	6078      	str	r0, [r7, #4]
  SET_BIT(TIMx->CR1, TIM_CR1_CEN);
 8001c8e:	687b      	ldr	r3, [r7, #4]
 8001c90:	681b      	ldr	r3, [r3, #0]
 8001c92:	f043 0201 	orr.w	r2, r3, #1
 8001c96:	687b      	ldr	r3, [r7, #4]
 8001c98:	601a      	str	r2, [r3, #0]
}
 8001c9a:	bf00      	nop
 8001c9c:	370c      	adds	r7, #12
 8001c9e:	46bd      	mov	sp, r7
 8001ca0:	f85d 7b04 	ldr.w	r7, [sp], #4
 8001ca4:	4770      	bx	lr

08001ca6 <LL_TIM_SetAutoReload>:
{
 8001ca6:	b480      	push	{r7}
 8001ca8:	b083      	sub	sp, #12
 8001caa:	af00      	add	r7, sp, #0
 8001cac:	6078      	str	r0, [r7, #4]
 8001cae:	6039      	str	r1, [r7, #0]
  WRITE_REG(TIMx->ARR, AutoReload);
 8001cb0:	687b      	ldr	r3, [r7, #4]
 8001cb2:	683a      	ldr	r2, [r7, #0]
 8001cb4:	62da      	str	r2, [r3, #44]	@ 0x2c
}
 8001cb6:	bf00      	nop
 8001cb8:	370c      	adds	r7, #12
 8001cba:	46bd      	mov	sp, r7
 8001cbc:	f85d 7b04 	ldr.w	r7, [sp], #4
 8001cc0:	4770      	bx	lr

08001cc2 <LL_TIM_ClearFlag_UPDATE>:
  * @rmtoll SR           UIF           LL_TIM_ClearFlag_UPDATE
  * @param  TIMx Timer instance
  * @retval None
  */
__STATIC_INLINE void LL_TIM_ClearFlag_UPDATE(TIM_TypeDef *TIMx)
{
 8001cc2:	b480      	push	{r7}
 8001cc4:	b083      	sub	sp, #12
 8001cc6:	af00      	add	r7, sp, #0
 8001cc8:	6078      	str	r0, [r7, #4]
  WRITE_REG(TIMx->SR, ~(TIM_SR_UIF));
 8001cca:	687b      	ldr	r3, [r7, #4]
 8001ccc:	f06f 0201 	mvn.w	r2, #1
 8001cd0:	611a      	str	r2, [r3, #16]
}
 8001cd2:	bf00      	nop
 8001cd4:	370c      	adds	r7, #12
 8001cd6:	46bd      	mov	sp, r7
 8001cd8:	f85d 7b04 	ldr.w	r7, [sp], #4
 8001cdc:	4770      	bx	lr

08001cde <LL_TIM_IsActiveFlag_UPDATE>:
  * @rmtoll SR           UIF           LL_TIM_IsActiveFlag_UPDATE
  * @param  TIMx Timer instance
  * @retval State of bit (1 or 0).
  */
__STATIC_INLINE uint32_t LL_TIM_IsActiveFlag_UPDATE(const TIM_TypeDef *TIMx)
{
 8001cde:	b480      	push	{r7}
 8001ce0:	b083      	sub	sp, #12
 8001ce2:	af00      	add	r7, sp, #0
 8001ce4:	6078      	str	r0, [r7, #4]
  return ((READ_BIT(TIMx->SR, TIM_SR_UIF) == (TIM_SR_UIF)) ? 1UL : 0UL);
 8001ce6:	687b      	ldr	r3, [r7, #4]
 8001ce8:	691b      	ldr	r3, [r3, #16]
 8001cea:	f003 0301 	and.w	r3, r3, #1
 8001cee:	2b01      	cmp	r3, #1
 8001cf0:	d101      	bne.n	8001cf6 <LL_TIM_IsActiveFlag_UPDATE+0x18>
 8001cf2:	2301      	movs	r3, #1
 8001cf4:	e000      	b.n	8001cf8 <LL_TIM_IsActiveFlag_UPDATE+0x1a>
 8001cf6:	2300      	movs	r3, #0
}
 8001cf8:	4618      	mov	r0, r3
 8001cfa:	370c      	adds	r7, #12
 8001cfc:	46bd      	mov	sp, r7
 8001cfe:	f85d 7b04 	ldr.w	r7, [sp], #4
 8001d02:	4770      	bx	lr

08001d04 <LL_TIM_EnableIT_UPDATE>:
  * @rmtoll DIER         UIE           LL_TIM_EnableIT_UPDATE
  * @param  TIMx Timer instance
  * @retval None
  */
__STATIC_INLINE void LL_TIM_EnableIT_UPDATE(TIM_TypeDef *TIMx)
{
 8001d04:	b480      	push	{r7}
 8001d06:	b083      	sub	sp, #12
 8001d08:	af00      	add	r7, sp, #0
 8001d0a:	6078      	str	r0, [r7, #4]
  SET_BIT(TIMx->DIER, TIM_DIER_UIE);
 8001d0c:	687b      	ldr	r3, [r7, #4]
 8001d0e:	68db      	ldr	r3, [r3, #12]
 8001d10:	f043 0201 	orr.w	r2, r3, #1
 8001d14:	687b      	ldr	r3, [r7, #4]
 8001d16:	60da      	str	r2, [r3, #12]
}
 8001d18:	bf00      	nop
 8001d1a:	370c      	adds	r7, #12
 8001d1c:	46bd      	mov	sp, r7
 8001d1e:	f85d 7b04 	ldr.w	r7, [sp], #4
 8001d22:	4770      	bx	lr

08001d24 <LL_TIM_GenerateEvent_UPDATE>:
  * @rmtoll EGR          UG            LL_TIM_GenerateEvent_UPDATE
  * @param  TIMx Timer instance
  * @retval None
  */
__STATIC_INLINE void LL_TIM_GenerateEvent_UPDATE(TIM_TypeDef *TIMx)
{
 8001d24:	b480      	push	{r7}
 8001d26:	b083      	sub	sp, #12
 8001d28:	af00      	add	r7, sp, #0
 8001d2a:	6078      	str	r0, [r7, #4]
  SET_BIT(TIMx->EGR, TIM_EGR_UG);
 8001d2c:	687b      	ldr	r3, [r7, #4]
 8001d2e:	695b      	ldr	r3, [r3, #20]
 8001d30:	f043 0201 	orr.w	r2, r3, #1
 8001d34:	687b      	ldr	r3, [r7, #4]
 8001d36:	615a      	str	r2, [r3, #20]
}
 8001d38:	bf00      	nop
 8001d3a:	370c      	adds	r7, #12
 8001d3c:	46bd      	mov	sp, r7
 8001d3e:	f85d 7b04 	ldr.w	r7, [sp], #4
 8001d42:	4770      	bx	lr

08001d44 <LL_DMA_EnableChannel>:
{
 8001d44:	b480      	push	{r7}
 8001d46:	b085      	sub	sp, #20
 8001d48:	af00      	add	r7, sp, #0
 8001d4a:	6078      	str	r0, [r7, #4]
 8001d4c:	6039      	str	r1, [r7, #0]
  uint32_t dma_base_addr = (uint32_t)DMAx;
 8001d4e:	687b      	ldr	r3, [r7, #4]
 8001d50:	60fb      	str	r3, [r7, #12]
  SET_BIT(((DMA_Channel_TypeDef *)((uint32_t)(dma_base_addr + CHANNEL_OFFSET_TAB[Channel])))->CCR, DMA_CCR_EN);
 8001d52:	4a0c      	ldr	r2, [pc, #48]	@ (8001d84 <LL_DMA_EnableChannel+0x40>)
 8001d54:	683b      	ldr	r3, [r7, #0]
 8001d56:	4413      	add	r3, r2
 8001d58:	781b      	ldrb	r3, [r3, #0]
 8001d5a:	461a      	mov	r2, r3
 8001d5c:	68fb      	ldr	r3, [r7, #12]
 8001d5e:	4413      	add	r3, r2
 8001d60:	681b      	ldr	r3, [r3, #0]
 8001d62:	4908      	ldr	r1, [pc, #32]	@ (8001d84 <LL_DMA_EnableChannel+0x40>)
 8001d64:	683a      	ldr	r2, [r7, #0]
 8001d66:	440a      	add	r2, r1
 8001d68:	7812      	ldrb	r2, [r2, #0]
 8001d6a:	4611      	mov	r1, r2
 8001d6c:	68fa      	ldr	r2, [r7, #12]
 8001d6e:	440a      	add	r2, r1
 8001d70:	f043 0301 	orr.w	r3, r3, #1
 8001d74:	6013      	str	r3, [r2, #0]
}
 8001d76:	bf00      	nop
 8001d78:	3714      	adds	r7, #20
 8001d7a:	46bd      	mov	sp, r7
 8001d7c:	f85d 7b04 	ldr.w	r7, [sp], #4
 8001d80:	4770      	bx	lr
 8001d82:	bf00      	nop
 8001d84:	080038c0 	.word	0x080038c0

08001d88 <LL_DMA_DisableChannel>:
{
 8001d88:	b480      	push	{r7}
 8001d8a:	b085      	sub	sp, #20
 8001d8c:	af00      	add	r7, sp, #0
 8001d8e:	6078      	str	r0, [r7, #4]
 8001d90:	6039      	str	r1, [r7, #0]
  uint32_t dma_base_addr = (uint32_t)DMAx;
 8001d92:	687b      	ldr	r3, [r7, #4]
 8001d94:	60fb      	str	r3, [r7, #12]
  CLEAR_BIT(((DMA_Channel_TypeDef *)((uint32_t)(dma_base_addr + CHANNEL_OFFSET_TAB[Channel])))->CCR, DMA_CCR_EN);
 8001d96:	4a0c      	ldr	r2, [pc, #48]	@ (8001dc8 <LL_DMA_DisableChannel+0x40>)
 8001d98:	683b      	ldr	r3, [r7, #0]
 8001d9a:	4413      	add	r3, r2
 8001d9c:	781b      	ldrb	r3, [r3, #0]
 8001d9e:	461a      	mov	r2, r3
 8001da0:	68fb      	ldr	r3, [r7, #12]
 8001da2:	4413      	add	r3, r2
 8001da4:	681b      	ldr	r3, [r3, #0]
 8001da6:	4908      	ldr	r1, [pc, #32]	@ (8001dc8 <LL_DMA_DisableChannel+0x40>)
 8001da8:	683a      	ldr	r2, [r7, #0]
 8001daa:	440a      	add	r2, r1
 8001dac:	7812      	ldrb	r2, [r2, #0]
 8001dae:	4611      	mov	r1, r2
 8001db0:	68fa      	ldr	r2, [r7, #12]
 8001db2:	440a      	add	r2, r1
 8001db4:	f023 0301 	bic.w	r3, r3, #1
 8001db8:	6013      	str	r3, [r2, #0]
}
 8001dba:	bf00      	nop
 8001dbc:	3714      	adds	r7, #20
 8001dbe:	46bd      	mov	sp, r7
 8001dc0:	f85d 7b04 	ldr.w	r7, [sp], #4
 8001dc4:	4770      	bx	lr
 8001dc6:	bf00      	nop
 8001dc8:	080038c0 	.word	0x080038c0

08001dcc <LL_DMA_IsEnabledChannel>:
{
 8001dcc:	b480      	push	{r7}
 8001dce:	b085      	sub	sp, #20
 8001dd0:	af00      	add	r7, sp, #0
 8001dd2:	6078      	str	r0, [r7, #4]
 8001dd4:	6039      	str	r1, [r7, #0]
  uint32_t dma_base_addr = (uint32_t)DMAx;
 8001dd6:	687b      	ldr	r3, [r7, #4]
 8001dd8:	60fb      	str	r3, [r7, #12]
  return ((READ_BIT(((DMA_Channel_TypeDef *)((uint32_t)(dma_base_addr + CHANNEL_OFFSET_TAB[Channel])))->CCR,
 8001dda:	4a0a      	ldr	r2, [pc, #40]	@ (8001e04 <LL_DMA_IsEnabledChannel+0x38>)
 8001ddc:	683b      	ldr	r3, [r7, #0]
 8001dde:	4413      	add	r3, r2
 8001de0:	781b      	ldrb	r3, [r3, #0]
 8001de2:	461a      	mov	r2, r3
 8001de4:	68fb      	ldr	r3, [r7, #12]
 8001de6:	4413      	add	r3, r2
 8001de8:	681b      	ldr	r3, [r3, #0]
 8001dea:	f003 0301 	and.w	r3, r3, #1
                    DMA_CCR_EN) == (DMA_CCR_EN)) ? 1UL : 0UL);
 8001dee:	2b01      	cmp	r3, #1
 8001df0:	d101      	bne.n	8001df6 <LL_DMA_IsEnabledChannel+0x2a>
 8001df2:	2301      	movs	r3, #1
 8001df4:	e000      	b.n	8001df8 <LL_DMA_IsEnabledChannel+0x2c>
 8001df6:	2300      	movs	r3, #0
}
 8001df8:	4618      	mov	r0, r3
 8001dfa:	3714      	adds	r7, #20
 8001dfc:	46bd      	mov	sp, r7
 8001dfe:	f85d 7b04 	ldr.w	r7, [sp], #4
 8001e02:	4770      	bx	lr
 8001e04:	080038c0 	.word	0x080038c0

08001e08 <LL_DMA_SetDataLength>:
{
 8001e08:	b480      	push	{r7}
 8001e0a:	b087      	sub	sp, #28
 8001e0c:	af00      	add	r7, sp, #0
 8001e0e:	60f8      	str	r0, [r7, #12]
 8001e10:	60b9      	str	r1, [r7, #8]
 8001e12:	607a      	str	r2, [r7, #4]
  uint32_t dma_base_addr = (uint32_t)DMAx;
 8001e14:	68fb      	ldr	r3, [r7, #12]
 8001e16:	617b      	str	r3, [r7, #20]
  MODIFY_REG(((DMA_Channel_TypeDef *)((uint32_t)(dma_base_addr + CHANNEL_OFFSET_TAB[Channel])))->CNDTR,
 8001e18:	4a0d      	ldr	r2, [pc, #52]	@ (8001e50 <LL_DMA_SetDataLength+0x48>)
 8001e1a:	68bb      	ldr	r3, [r7, #8]
 8001e1c:	4413      	add	r3, r2
 8001e1e:	781b      	ldrb	r3, [r3, #0]
 8001e20:	461a      	mov	r2, r3
 8001e22:	697b      	ldr	r3, [r7, #20]
 8001e24:	4413      	add	r3, r2
 8001e26:	685b      	ldr	r3, [r3, #4]
 8001e28:	0c1b      	lsrs	r3, r3, #16
 8001e2a:	041b      	lsls	r3, r3, #16
 8001e2c:	4908      	ldr	r1, [pc, #32]	@ (8001e50 <LL_DMA_SetDataLength+0x48>)
 8001e2e:	68ba      	ldr	r2, [r7, #8]
 8001e30:	440a      	add	r2, r1
 8001e32:	7812      	ldrb	r2, [r2, #0]
 8001e34:	4611      	mov	r1, r2
 8001e36:	697a      	ldr	r2, [r7, #20]
 8001e38:	440a      	add	r2, r1
 8001e3a:	4611      	mov	r1, r2
 8001e3c:	687a      	ldr	r2, [r7, #4]
 8001e3e:	4313      	orrs	r3, r2
 8001e40:	604b      	str	r3, [r1, #4]
}
 8001e42:	bf00      	nop
 8001e44:	371c      	adds	r7, #28
 8001e46:	46bd      	mov	sp, r7
 8001e48:	f85d 7b04 	ldr.w	r7, [sp], #4
 8001e4c:	4770      	bx	lr
 8001e4e:	bf00      	nop
 8001e50:	080038c0 	.word	0x080038c0

08001e54 <LL_DMA_ConfigAddresses>:
{
 8001e54:	b480      	push	{r7}
 8001e56:	b087      	sub	sp, #28
 8001e58:	af00      	add	r7, sp, #0
 8001e5a:	60f8      	str	r0, [r7, #12]
 8001e5c:	60b9      	str	r1, [r7, #8]
 8001e5e:	607a      	str	r2, [r7, #4]
 8001e60:	603b      	str	r3, [r7, #0]
  uint32_t dma_base_addr = (uint32_t)DMAx;
 8001e62:	68fb      	ldr	r3, [r7, #12]
 8001e64:	617b      	str	r3, [r7, #20]
  if (Direction == LL_DMA_DIRECTION_MEMORY_TO_PERIPH)
 8001e66:	6a3b      	ldr	r3, [r7, #32]
 8001e68:	2b10      	cmp	r3, #16
 8001e6a:	d114      	bne.n	8001e96 <LL_DMA_ConfigAddresses+0x42>
    WRITE_REG(((DMA_Channel_TypeDef *)((uint32_t)(dma_base_addr + CHANNEL_OFFSET_TAB[Channel])))->CMAR, SrcAddress);
 8001e6c:	4a17      	ldr	r2, [pc, #92]	@ (8001ecc <LL_DMA_ConfigAddresses+0x78>)
 8001e6e:	68bb      	ldr	r3, [r7, #8]
 8001e70:	4413      	add	r3, r2
 8001e72:	781b      	ldrb	r3, [r3, #0]
 8001e74:	461a      	mov	r2, r3
 8001e76:	697b      	ldr	r3, [r7, #20]
 8001e78:	4413      	add	r3, r2
 8001e7a:	461a      	mov	r2, r3
 8001e7c:	687b      	ldr	r3, [r7, #4]
 8001e7e:	60d3      	str	r3, [r2, #12]
    WRITE_REG(((DMA_Channel_TypeDef *)((uint32_t)(dma_base_addr + CHANNEL_OFFSET_TAB[Channel])))->CPAR, DstAddress);
 8001e80:	4a12      	ldr	r2, [pc, #72]	@ (8001ecc <LL_DMA_ConfigAddresses+0x78>)
 8001e82:	68bb      	ldr	r3, [r7, #8]
 8001e84:	4413      	add	r3, r2
 8001e86:	781b      	ldrb	r3, [r3, #0]
 8001e88:	461a      	mov	r2, r3
 8001e8a:	697b      	ldr	r3, [r7, #20]
 8001e8c:	4413      	add	r3, r2
 8001e8e:	461a      	mov	r2, r3
 8001e90:	683b      	ldr	r3, [r7, #0]
 8001e92:	6093      	str	r3, [r2, #8]
}
 8001e94:	e013      	b.n	8001ebe <LL_DMA_ConfigAddresses+0x6a>
    WRITE_REG(((DMA_Channel_TypeDef *)((uint32_t)(dma_base_addr + CHANNEL_OFFSET_TAB[Channel])))->CPAR, SrcAddress);
 8001e96:	4a0d      	ldr	r2, [pc, #52]	@ (8001ecc <LL_DMA_ConfigAddresses+0x78>)
 8001e98:	68bb      	ldr	r3, [r7, #8]
 8001e9a:	4413      	add	r3, r2
 8001e9c:	781b      	ldrb	r3, [r3, #0]
 8001e9e:	461a      	mov	r2, r3
 8001ea0:	697b      	ldr	r3, [r7, #20]
 8001ea2:	4413      	add	r3, r2
 8001ea4:	461a      	mov	r2, r3
 8001ea6:	687b      	ldr	r3, [r7, #4]
 8001ea8:	6093      	str	r3, [r2, #8]
    WRITE_REG(((DMA_Channel_TypeDef *)((uint32_t)(dma_base_addr + CHANNEL_OFFSET_TAB[Channel])))->CMAR, DstAddress);
 8001eaa:	4a08      	ldr	r2, [pc, #32]	@ (8001ecc <LL_DMA_ConfigAddresses+0x78>)
 8001eac:	68bb      	ldr	r3, [r7, #8]
 8001eae:	4413      	add	r3, r2
 8001eb0:	781b      	ldrb	r3, [r3, #0]
 8001eb2:	461a      	mov	r2, r3
 8001eb4:	697b      	ldr	r3, [r7, #20]
 8001eb6:	4413      	add	r3, r2
 8001eb8:	461a      	mov	r2, r3
 8001eba:	683b      	ldr	r3, [r7, #0]
 8001ebc:	60d3      	str	r3, [r2, #12]
}
 8001ebe:	bf00      	nop
 8001ec0:	371c      	adds	r7, #28
 8001ec2:	46bd      	mov	sp, r7
 8001ec4:	f85d 7b04 	ldr.w	r7, [sp], #4
 8001ec8:	4770      	bx	lr
 8001eca:	bf00      	nop
 8001ecc:	080038c0 	.word	0x080038c0

08001ed0 <LL_DMA_SetMemoryAddress>:
{
 8001ed0:	b480      	push	{r7}
 8001ed2:	b087      	sub	sp, #28
 8001ed4:	af00      	add	r7, sp, #0
 8001ed6:	60f8      	str	r0, [r7, #12]
 8001ed8:	60b9      	str	r1, [r7, #8]
 8001eda:	607a      	str	r2, [r7, #4]
  uint32_t dma_base_addr = (uint32_t)DMAx;
 8001edc:	68fb      	ldr	r3, [r7, #12]
 8001ede:	617b      	str	r3, [r7, #20]
  WRITE_REG(((DMA_Channel_TypeDef *)((uint32_t)(dma_base_addr + CHANNEL_OFFSET_TAB[Channel])))->CMAR, MemoryAddress);
 8001ee0:	4a07      	ldr	r2, [pc, #28]	@ (8001f00 <LL_DMA_SetMemoryAddress+0x30>)
 8001ee2:	68bb      	ldr	r3, [r7, #8]
 8001ee4:	4413      	add	r3, r2
 8001ee6:	781b      	ldrb	r3, [r3, #0]
 8001ee8:	461a      	mov	r2, r3
 8001eea:	697b      	ldr	r3, [r7, #20]
 8001eec:	4413      	add	r3, r2
 8001eee:	461a      	mov	r2, r3
 8001ef0:	687b      	ldr	r3, [r7, #4]
 8001ef2:	60d3      	str	r3, [r2, #12]
}
 8001ef4:	bf00      	nop
 8001ef6:	371c      	adds	r7, #28
 8001ef8:	46bd      	mov	sp, r7
 8001efa:	f85d 7b04 	ldr.w	r7, [sp], #4
 8001efe:	4770      	bx	lr
 8001f00:	080038c0 	.word	0x080038c0

08001f04 <LL_DMA_SetPeriphAddress>:
{
 8001f04:	b480      	push	{r7}
 8001f06:	b087      	sub	sp, #28
 8001f08:	af00      	add	r7, sp, #0
 8001f0a:	60f8      	str	r0, [r7, #12]
 8001f0c:	60b9      	str	r1, [r7, #8]
 8001f0e:	607a      	str	r2, [r7, #4]
  uint32_t dma_base_addr = (uint32_t)DMAx;
 8001f10:	68fb      	ldr	r3, [r7, #12]
 8001f12:	617b      	str	r3, [r7, #20]
  WRITE_REG(((DMA_Channel_TypeDef *)((uint32_t)(dma_base_addr + CHANNEL_OFFSET_TAB[Channel])))->CPAR, PeriphAddress);
 8001f14:	4a07      	ldr	r2, [pc, #28]	@ (8001f34 <LL_DMA_SetPeriphAddress+0x30>)
 8001f16:	68bb      	ldr	r3, [r7, #8]
 8001f18:	4413      	add	r3, r2
 8001f1a:	781b      	ldrb	r3, [r3, #0]
 8001f1c:	461a      	mov	r2, r3
 8001f1e:	697b      	ldr	r3, [r7, #20]
 8001f20:	4413      	add	r3, r2
 8001f22:	461a      	mov	r2, r3
 8001f24:	687b      	ldr	r3, [r7, #4]
 8001f26:	6093      	str	r3, [r2, #8]
}
 8001f28:	bf00      	nop
 8001f2a:	371c      	adds	r7, #28
 8001f2c:	46bd      	mov	sp, r7
 8001f2e:	f85d 7b04 	ldr.w	r7, [sp], #4
 8001f32:	4770      	bx	lr
 8001f34:	080038c0 	.word	0x080038c0

08001f38 <LL_DMA_IsActiveFlag_TC3>:
  * @rmtoll ISR          TCIF3         LL_DMA_IsActiveFlag_TC3
  * @param  DMAx DMAx Instance
  * @retval State of bit (1 or 0).
  */
__STATIC_INLINE uint32_t LL_DMA_IsActiveFlag_TC3(DMA_TypeDef *DMAx)
{
 8001f38:	b480      	push	{r7}
 8001f3a:	b083      	sub	sp, #12
 8001f3c:	af00      	add	r7, sp, #0
 8001f3e:	6078      	str	r0, [r7, #4]
  return ((READ_BIT(DMAx->ISR, DMA_ISR_TCIF3) == (DMA_ISR_TCIF3)) ? 1UL : 0UL);
 8001f40:	687b      	ldr	r3, [r7, #4]
 8001f42:	681b      	ldr	r3, [r3, #0]
 8001f44:	f403 7300 	and.w	r3, r3, #512	@ 0x200
 8001f48:	f5b3 7f00 	cmp.w	r3, #512	@ 0x200
 8001f4c:	d101      	bne.n	8001f52 <LL_DMA_IsActiveFlag_TC3+0x1a>
 8001f4e:	2301      	movs	r3, #1
 8001f50:	e000      	b.n	8001f54 <LL_DMA_IsActiveFlag_TC3+0x1c>
 8001f52:	2300      	movs	r3, #0
}
 8001f54:	4618      	mov	r0, r3
 8001f56:	370c      	adds	r7, #12
 8001f58:	46bd      	mov	sp, r7
 8001f5a:	f85d 7b04 	ldr.w	r7, [sp], #4
 8001f5e:	4770      	bx	lr

08001f60 <LL_DMA_IsActiveFlag_TC4>:
  * @rmtoll ISR          TCIF4         LL_DMA_IsActiveFlag_TC4
  * @param  DMAx DMAx Instance
  * @retval State of bit (1 or 0).
  */
__STATIC_INLINE uint32_t LL_DMA_IsActiveFlag_TC4(DMA_TypeDef *DMAx)
{
 8001f60:	b480      	push	{r7}
 8001f62:	b083      	sub	sp, #12
 8001f64:	af00      	add	r7, sp, #0
 8001f66:	6078      	str	r0, [r7, #4]
  return ((READ_BIT(DMAx->ISR, DMA_ISR_TCIF4) == (DMA_ISR_TCIF4)) ? 1UL : 0UL);
 8001f68:	687b      	ldr	r3, [r7, #4]
 8001f6a:	681b      	ldr	r3, [r3, #0]
 8001f6c:	f403 5300 	and.w	r3, r3, #8192	@ 0x2000
 8001f70:	f5b3 5f00 	cmp.w	r3, #8192	@ 0x2000
 8001f74:	d101      	bne.n	8001f7a <LL_DMA_IsActiveFlag_TC4+0x1a>
 8001f76:	2301      	movs	r3, #1
 8001f78:	e000      	b.n	8001f7c <LL_DMA_IsActiveFlag_TC4+0x1c>
 8001f7a:	2300      	movs	r3, #0
}
 8001f7c:	4618      	mov	r0, r3
 8001f7e:	370c      	adds	r7, #12
 8001f80:	46bd      	mov	sp, r7
 8001f82:	f85d 7b04 	ldr.w	r7, [sp], #4
 8001f86:	4770      	bx	lr

08001f88 <LL_DMA_IsActiveFlag_TE4>:
  * @rmtoll ISR          TEIF4         LL_DMA_IsActiveFlag_TE4
  * @param  DMAx DMAx Instance
  * @retval State of bit (1 or 0).
  */
__STATIC_INLINE uint32_t LL_DMA_IsActiveFlag_TE4(DMA_TypeDef *DMAx)
{
 8001f88:	b480      	push	{r7}
 8001f8a:	b083      	sub	sp, #12
 8001f8c:	af00      	add	r7, sp, #0
 8001f8e:	6078      	str	r0, [r7, #4]
  return ((READ_BIT(DMAx->ISR, DMA_ISR_TEIF4) == (DMA_ISR_TEIF4)) ? 1UL : 0UL);
 8001f90:	687b      	ldr	r3, [r7, #4]
 8001f92:	681b      	ldr	r3, [r3, #0]
 8001f94:	f403 4300 	and.w	r3, r3, #32768	@ 0x8000
 8001f98:	f5b3 4f00 	cmp.w	r3, #32768	@ 0x8000
 8001f9c:	d101      	bne.n	8001fa2 <LL_DMA_IsActiveFlag_TE4+0x1a>
 8001f9e:	2301      	movs	r3, #1
 8001fa0:	e000      	b.n	8001fa4 <LL_DMA_IsActiveFlag_TE4+0x1c>
 8001fa2:	2300      	movs	r3, #0
}
 8001fa4:	4618      	mov	r0, r3
 8001fa6:	370c      	adds	r7, #12
 8001fa8:	46bd      	mov	sp, r7
 8001faa:	f85d 7b04 	ldr.w	r7, [sp], #4
 8001fae:	4770      	bx	lr

08001fb0 <LL_DMA_ClearFlag_TC3>:
  * @rmtoll IFCR         CTCIF3        LL_DMA_ClearFlag_TC3
  * @param  DMAx DMAx Instance
  * @retval None
  */
__STATIC_INLINE void LL_DMA_ClearFlag_TC3(DMA_TypeDef *DMAx)
{
 8001fb0:	b480      	push	{r7}
 8001fb2:	b083      	sub	sp, #12
 8001fb4:	af00      	add	r7, sp, #0
 8001fb6:	6078      	str	r0, [r7, #4]
  WRITE_REG(DMAx->IFCR, DMA_IFCR_CTCIF3);
 8001fb8:	687b      	ldr	r3, [r7, #4]
 8001fba:	f44f 7200 	mov.w	r2, #512	@ 0x200
 8001fbe:	605a      	str	r2, [r3, #4]
}
 8001fc0:	bf00      	nop
 8001fc2:	370c      	adds	r7, #12
 8001fc4:	46bd      	mov	sp, r7
 8001fc6:	f85d 7b04 	ldr.w	r7, [sp], #4
 8001fca:	4770      	bx	lr

08001fcc <LL_DMA_ClearFlag_TC4>:
  * @rmtoll IFCR         CTCIF4        LL_DMA_ClearFlag_TC4
  * @param  DMAx DMAx Instance
  * @retval None
  */
__STATIC_INLINE void LL_DMA_ClearFlag_TC4(DMA_TypeDef *DMAx)
{
 8001fcc:	b480      	push	{r7}
 8001fce:	b083      	sub	sp, #12
 8001fd0:	af00      	add	r7, sp, #0
 8001fd2:	6078      	str	r0, [r7, #4]
  WRITE_REG(DMAx->IFCR, DMA_IFCR_CTCIF4);
 8001fd4:	687b      	ldr	r3, [r7, #4]
 8001fd6:	f44f 5200 	mov.w	r2, #8192	@ 0x2000
 8001fda:	605a      	str	r2, [r3, #4]
}
 8001fdc:	bf00      	nop
 8001fde:	370c      	adds	r7, #12
 8001fe0:	46bd      	mov	sp, r7
 8001fe2:	f85d 7b04 	ldr.w	r7, [sp], #4
 8001fe6:	4770      	bx	lr

08001fe8 <LL_DMA_ClearFlag_TE4>:
  * @rmtoll IFCR         CTEIF4        LL_DMA_ClearFlag_TE4
  * @param  DMAx DMAx Instance
  * @retval None
  */
__STATIC_INLINE void LL_DMA_ClearFlag_TE4(DMA_TypeDef *DMAx)
{
 8001fe8:	b480      	push	{r7}
 8001fea:	b083      	sub	sp, #12
 8001fec:	af00      	add	r7, sp, #0
 8001fee:	6078      	str	r0, [r7, #4]
  WRITE_REG(DMAx->IFCR, DMA_IFCR_CTEIF4);
 8001ff0:	687b      	ldr	r3, [r7, #4]
 8001ff2:	f44f 4200 	mov.w	r2, #32768	@ 0x8000
 8001ff6:	605a      	str	r2, [r3, #4]
}
 8001ff8:	bf00      	nop
 8001ffa:	370c      	adds	r7, #12
 8001ffc:	46bd      	mov	sp, r7
 8001ffe:	f85d 7b04 	ldr.w	r7, [sp], #4
 8002002:	4770      	bx	lr

08002004 <LL_DMA_EnableIT_TC>:
  *         @arg @ref LL_DMA_CHANNEL_8 (*)
  *         (*) Not on all G4 devices
  * @retval None
  */
__STATIC_INLINE void LL_DMA_EnableIT_TC(DMA_TypeDef *DMAx, uint32_t Channel)
{
 8002004:	b480      	push	{r7}
 8002006:	b085      	sub	sp, #20
 8002008:	af00      	add	r7, sp, #0
 800200a:	6078      	str	r0, [r7, #4]
 800200c:	6039      	str	r1, [r7, #0]
  uint32_t dma_base_addr = (uint32_t)DMAx;
 800200e:	687b      	ldr	r3, [r7, #4]
 8002010:	60fb      	str	r3, [r7, #12]
  SET_BIT(((DMA_Channel_TypeDef *)((uint32_t)(dma_base_addr + CHANNEL_OFFSET_TAB[Channel])))->CCR, DMA_CCR_TCIE);
 8002012:	4a0c      	ldr	r2, [pc, #48]	@ (8002044 <LL_DMA_EnableIT_TC+0x40>)
 8002014:	683b      	ldr	r3, [r7, #0]
 8002016:	4413      	add	r3, r2
 8002018:	781b      	ldrb	r3, [r3, #0]
 800201a:	461a      	mov	r2, r3
 800201c:	68fb      	ldr	r3, [r7, #12]
 800201e:	4413      	add	r3, r2
 8002020:	681b      	ldr	r3, [r3, #0]
 8002022:	4908      	ldr	r1, [pc, #32]	@ (8002044 <LL_DMA_EnableIT_TC+0x40>)
 8002024:	683a      	ldr	r2, [r7, #0]
 8002026:	440a      	add	r2, r1
 8002028:	7812      	ldrb	r2, [r2, #0]
 800202a:	4611      	mov	r1, r2
 800202c:	68fa      	ldr	r2, [r7, #12]
 800202e:	440a      	add	r2, r1
 8002030:	f043 0302 	orr.w	r3, r3, #2
 8002034:	6013      	str	r3, [r2, #0]
}
 8002036:	bf00      	nop
 8002038:	3714      	adds	r7, #20
 800203a:	46bd      	mov	sp, r7
 800203c:	f85d 7b04 	ldr.w	r7, [sp], #4
 8002040:	4770      	bx	lr
 8002042:	bf00      	nop
 8002044:	080038c0 	.word	0x080038c0

08002048 <LL_DMA_EnableIT_TE>:
  *         @arg @ref LL_DMA_CHANNEL_8 (*)
  *         (*) Not on all G4 devices
  * @retval None
  */
__STATIC_INLINE void LL_DMA_EnableIT_TE(DMA_TypeDef *DMAx, uint32_t Channel)
{
 8002048:	b480      	push	{r7}
 800204a:	b085      	sub	sp, #20
 800204c:	af00      	add	r7, sp, #0
 800204e:	6078      	str	r0, [r7, #4]
 8002050:	6039      	str	r1, [r7, #0]
  uint32_t dma_base_addr = (uint32_t)DMAx;
 8002052:	687b      	ldr	r3, [r7, #4]
 8002054:	60fb      	str	r3, [r7, #12]
  SET_BIT(((DMA_Channel_TypeDef *)((uint32_t)(dma_base_addr + CHANNEL_OFFSET_TAB[Channel])))->CCR, DMA_CCR_TEIE);
 8002056:	4a0c      	ldr	r2, [pc, #48]	@ (8002088 <LL_DMA_EnableIT_TE+0x40>)
 8002058:	683b      	ldr	r3, [r7, #0]
 800205a:	4413      	add	r3, r2
 800205c:	781b      	ldrb	r3, [r3, #0]
 800205e:	461a      	mov	r2, r3
 8002060:	68fb      	ldr	r3, [r7, #12]
 8002062:	4413      	add	r3, r2
 8002064:	681b      	ldr	r3, [r3, #0]
 8002066:	4908      	ldr	r1, [pc, #32]	@ (8002088 <LL_DMA_EnableIT_TE+0x40>)
 8002068:	683a      	ldr	r2, [r7, #0]
 800206a:	440a      	add	r2, r1
 800206c:	7812      	ldrb	r2, [r2, #0]
 800206e:	4611      	mov	r1, r2
 8002070:	68fa      	ldr	r2, [r7, #12]
 8002072:	440a      	add	r2, r1
 8002074:	f043 0308 	orr.w	r3, r3, #8
 8002078:	6013      	str	r3, [r2, #0]
}
 800207a:	bf00      	nop
 800207c:	3714      	adds	r7, #20
 800207e:	46bd      	mov	sp, r7
 8002080:	f85d 7b04 	ldr.w	r7, [sp], #4
 8002084:	4770      	bx	lr
 8002086:	bf00      	nop
 8002088:	080038c0 	.word	0x080038c0

0800208c <LL_USART_Enable>:
{
 800208c:	b480      	push	{r7}
 800208e:	b083      	sub	sp, #12
 8002090:	af00      	add	r7, sp, #0
 8002092:	6078      	str	r0, [r7, #4]
  SET_BIT(USARTx->CR1, USART_CR1_UE);
 8002094:	687b      	ldr	r3, [r7, #4]
 8002096:	681b      	ldr	r3, [r3, #0]
 8002098:	f043 0201 	orr.w	r2, r3, #1
 800209c:	687b      	ldr	r3, [r7, #4]
 800209e:	601a      	str	r2, [r3, #0]
}
 80020a0:	bf00      	nop
 80020a2:	370c      	adds	r7, #12
 80020a4:	46bd      	mov	sp, r7
 80020a6:	f85d 7b04 	ldr.w	r7, [sp], #4
 80020aa:	4770      	bx	lr

080020ac <LL_USART_Disable>:
{
 80020ac:	b480      	push	{r7}
 80020ae:	b083      	sub	sp, #12
 80020b0:	af00      	add	r7, sp, #0
 80020b2:	6078      	str	r0, [r7, #4]
  CLEAR_BIT(USARTx->CR1, USART_CR1_UE);
 80020b4:	687b      	ldr	r3, [r7, #4]
 80020b6:	681b      	ldr	r3, [r3, #0]
 80020b8:	f023 0201 	bic.w	r2, r3, #1
 80020bc:	687b      	ldr	r3, [r7, #4]
 80020be:	601a      	str	r2, [r3, #0]
}
 80020c0:	bf00      	nop
 80020c2:	370c      	adds	r7, #12
 80020c4:	46bd      	mov	sp, r7
 80020c6:	f85d 7b04 	ldr.w	r7, [sp], #4
 80020ca:	4770      	bx	lr

080020cc <LL_USART_EnableDirectionRx>:
{
 80020cc:	b480      	push	{r7}
 80020ce:	b089      	sub	sp, #36	@ 0x24
 80020d0:	af00      	add	r7, sp, #0
 80020d2:	6078      	str	r0, [r7, #4]
  ATOMIC_SET_BIT(USARTx->CR1, USART_CR1_RE);
 80020d4:	687b      	ldr	r3, [r7, #4]
 80020d6:	60fb      	str	r3, [r7, #12]
   __ASM volatile ("ldrex %0, %1" : "=r" (result) : "Q" (*addr) );
 80020d8:	68fb      	ldr	r3, [r7, #12]
 80020da:	e853 3f00 	ldrex	r3, [r3]
 80020de:	60bb      	str	r3, [r7, #8]
   return(result);
 80020e0:	68bb      	ldr	r3, [r7, #8]
 80020e2:	f043 0304 	orr.w	r3, r3, #4
 80020e6:	61fb      	str	r3, [r7, #28]
 80020e8:	687b      	ldr	r3, [r7, #4]
 80020ea:	69fa      	ldr	r2, [r7, #28]
 80020ec:	61ba      	str	r2, [r7, #24]
 80020ee:	617b      	str	r3, [r7, #20]
   __ASM volatile ("strex %0, %2, %1" : "=&r" (result), "=Q" (*addr) : "r" (value) );
 80020f0:	6979      	ldr	r1, [r7, #20]
 80020f2:	69ba      	ldr	r2, [r7, #24]
 80020f4:	e841 2300 	strex	r3, r2, [r1]
 80020f8:	613b      	str	r3, [r7, #16]
   return(result);
 80020fa:	693b      	ldr	r3, [r7, #16]
 80020fc:	2b00      	cmp	r3, #0
 80020fe:	d1e9      	bne.n	80020d4 <LL_USART_EnableDirectionRx+0x8>
}
 8002100:	bf00      	nop
 8002102:	bf00      	nop
 8002104:	3724      	adds	r7, #36	@ 0x24
 8002106:	46bd      	mov	sp, r7
 8002108:	f85d 7b04 	ldr.w	r7, [sp], #4
 800210c:	4770      	bx	lr

0800210e <LL_USART_DisableDirectionRx>:
{
 800210e:	b480      	push	{r7}
 8002110:	b089      	sub	sp, #36	@ 0x24
 8002112:	af00      	add	r7, sp, #0
 8002114:	6078      	str	r0, [r7, #4]
  ATOMIC_CLEAR_BIT(USARTx->CR1, USART_CR1_RE);
 8002116:	687b      	ldr	r3, [r7, #4]
 8002118:	60fb      	str	r3, [r7, #12]
   __ASM volatile ("ldrex %0, %1" : "=r" (result) : "Q" (*addr) );
 800211a:	68fb      	ldr	r3, [r7, #12]
 800211c:	e853 3f00 	ldrex	r3, [r3]
 8002120:	60bb      	str	r3, [r7, #8]
   return(result);
 8002122:	68bb      	ldr	r3, [r7, #8]
 8002124:	f023 0304 	bic.w	r3, r3, #4
 8002128:	61fb      	str	r3, [r7, #28]
 800212a:	687b      	ldr	r3, [r7, #4]
 800212c:	69fa      	ldr	r2, [r7, #28]
 800212e:	61ba      	str	r2, [r7, #24]
 8002130:	617b      	str	r3, [r7, #20]
   __ASM volatile ("strex %0, %2, %1" : "=&r" (result), "=Q" (*addr) : "r" (value) );
 8002132:	6979      	ldr	r1, [r7, #20]
 8002134:	69ba      	ldr	r2, [r7, #24]
 8002136:	e841 2300 	strex	r3, r2, [r1]
 800213a:	613b      	str	r3, [r7, #16]
   return(result);
 800213c:	693b      	ldr	r3, [r7, #16]
 800213e:	2b00      	cmp	r3, #0
 8002140:	d1e9      	bne.n	8002116 <LL_USART_DisableDirectionRx+0x8>
}
 8002142:	bf00      	nop
 8002144:	bf00      	nop
 8002146:	3724      	adds	r7, #36	@ 0x24
 8002148:	46bd      	mov	sp, r7
 800214a:	f85d 7b04 	ldr.w	r7, [sp], #4
 800214e:	4770      	bx	lr

08002150 <LL_USART_IsActiveFlag_TC>:
{
 8002150:	b480      	push	{r7}
 8002152:	b083      	sub	sp, #12
 8002154:	af00      	add	r7, sp, #0
 8002156:	6078      	str	r0, [r7, #4]
  return ((READ_BIT(USARTx->ISR, USART_ISR_TC) == (USART_ISR_TC)) ? 1UL : 0UL);
 8002158:	687b      	ldr	r3, [r7, #4]
 800215a:	69db      	ldr	r3, [r3, #28]
 800215c:	f003 0340 	and.w	r3, r3, #64	@ 0x40
 8002160:	2b40      	cmp	r3, #64	@ 0x40
 8002162:	d101      	bne.n	8002168 <LL_USART_IsActiveFlag_TC+0x18>
 8002164:	2301      	movs	r3, #1
 8002166:	e000      	b.n	800216a <LL_USART_IsActiveFlag_TC+0x1a>
 8002168:	2300      	movs	r3, #0
}
 800216a:	4618      	mov	r0, r3
 800216c:	370c      	adds	r7, #12
 800216e:	46bd      	mov	sp, r7
 8002170:	f85d 7b04 	ldr.w	r7, [sp], #4
 8002174:	4770      	bx	lr

08002176 <LL_USART_ClearFlag_PE>:
  * @rmtoll ICR          PECF          LL_USART_ClearFlag_PE
  * @param  USARTx USART Instance
  * @retval None
  */
__STATIC_INLINE void LL_USART_ClearFlag_PE(USART_TypeDef *USARTx)
{
 8002176:	b480      	push	{r7}
 8002178:	b083      	sub	sp, #12
 800217a:	af00      	add	r7, sp, #0
 800217c:	6078      	str	r0, [r7, #4]
  WRITE_REG(USARTx->ICR, USART_ICR_PECF);
 800217e:	687b      	ldr	r3, [r7, #4]
 8002180:	2201      	movs	r2, #1
 8002182:	621a      	str	r2, [r3, #32]
}
 8002184:	bf00      	nop
 8002186:	370c      	adds	r7, #12
 8002188:	46bd      	mov	sp, r7
 800218a:	f85d 7b04 	ldr.w	r7, [sp], #4
 800218e:	4770      	bx	lr

08002190 <LL_USART_ClearFlag_FE>:
  * @rmtoll ICR          FECF          LL_USART_ClearFlag_FE
  * @param  USARTx USART Instance
  * @retval None
  */
__STATIC_INLINE void LL_USART_ClearFlag_FE(USART_TypeDef *USARTx)
{
 8002190:	b480      	push	{r7}
 8002192:	b083      	sub	sp, #12
 8002194:	af00      	add	r7, sp, #0
 8002196:	6078      	str	r0, [r7, #4]
  WRITE_REG(USARTx->ICR, USART_ICR_FECF);
 8002198:	687b      	ldr	r3, [r7, #4]
 800219a:	2202      	movs	r2, #2
 800219c:	621a      	str	r2, [r3, #32]
}
 800219e:	bf00      	nop
 80021a0:	370c      	adds	r7, #12
 80021a2:	46bd      	mov	sp, r7
 80021a4:	f85d 7b04 	ldr.w	r7, [sp], #4
 80021a8:	4770      	bx	lr

080021aa <LL_USART_ClearFlag_NE>:
  * @rmtoll ICR          NECF          LL_USART_ClearFlag_NE
  * @param  USARTx USART Instance
  * @retval None
  */
__STATIC_INLINE void LL_USART_ClearFlag_NE(USART_TypeDef *USARTx)
{
 80021aa:	b480      	push	{r7}
 80021ac:	b083      	sub	sp, #12
 80021ae:	af00      	add	r7, sp, #0
 80021b0:	6078      	str	r0, [r7, #4]
  WRITE_REG(USARTx->ICR, USART_ICR_NECF);
 80021b2:	687b      	ldr	r3, [r7, #4]
 80021b4:	2204      	movs	r2, #4
 80021b6:	621a      	str	r2, [r3, #32]
}
 80021b8:	bf00      	nop
 80021ba:	370c      	adds	r7, #12
 80021bc:	46bd      	mov	sp, r7
 80021be:	f85d 7b04 	ldr.w	r7, [sp], #4
 80021c2:	4770      	bx	lr

080021c4 <LL_USART_ClearFlag_ORE>:
  * @rmtoll ICR          ORECF         LL_USART_ClearFlag_ORE
  * @param  USARTx USART Instance
  * @retval None
  */
__STATIC_INLINE void LL_USART_ClearFlag_ORE(USART_TypeDef *USARTx)
{
 80021c4:	b480      	push	{r7}
 80021c6:	b083      	sub	sp, #12
 80021c8:	af00      	add	r7, sp, #0
 80021ca:	6078      	str	r0, [r7, #4]
  WRITE_REG(USARTx->ICR, USART_ICR_ORECF);
 80021cc:	687b      	ldr	r3, [r7, #4]
 80021ce:	2208      	movs	r2, #8
 80021d0:	621a      	str	r2, [r3, #32]
}
 80021d2:	bf00      	nop
 80021d4:	370c      	adds	r7, #12
 80021d6:	46bd      	mov	sp, r7
 80021d8:	f85d 7b04 	ldr.w	r7, [sp], #4
 80021dc:	4770      	bx	lr

080021de <LL_USART_EnableDMAReq_RX>:
  * @rmtoll CR3          DMAR          LL_USART_EnableDMAReq_RX
  * @param  USARTx USART Instance
  * @retval None
  */
__STATIC_INLINE void LL_USART_EnableDMAReq_RX(USART_TypeDef *USARTx)
{
 80021de:	b480      	push	{r7}
 80021e0:	b089      	sub	sp, #36	@ 0x24
 80021e2:	af00      	add	r7, sp, #0
 80021e4:	6078      	str	r0, [r7, #4]
  ATOMIC_SET_BIT(USARTx->CR3, USART_CR3_DMAR);
 80021e6:	687b      	ldr	r3, [r7, #4]
 80021e8:	3308      	adds	r3, #8
 80021ea:	60fb      	str	r3, [r7, #12]
   __ASM volatile ("ldrex %0, %1" : "=r" (result) : "Q" (*addr) );
 80021ec:	68fb      	ldr	r3, [r7, #12]
 80021ee:	e853 3f00 	ldrex	r3, [r3]
 80021f2:	60bb      	str	r3, [r7, #8]
   return(result);
 80021f4:	68bb      	ldr	r3, [r7, #8]
 80021f6:	f043 0340 	orr.w	r3, r3, #64	@ 0x40
 80021fa:	61fb      	str	r3, [r7, #28]
 80021fc:	687b      	ldr	r3, [r7, #4]
 80021fe:	3308      	adds	r3, #8
 8002200:	69fa      	ldr	r2, [r7, #28]
 8002202:	61ba      	str	r2, [r7, #24]
 8002204:	617b      	str	r3, [r7, #20]
   __ASM volatile ("strex %0, %2, %1" : "=&r" (result), "=Q" (*addr) : "r" (value) );
 8002206:	6979      	ldr	r1, [r7, #20]
 8002208:	69ba      	ldr	r2, [r7, #24]
 800220a:	e841 2300 	strex	r3, r2, [r1]
 800220e:	613b      	str	r3, [r7, #16]
   return(result);
 8002210:	693b      	ldr	r3, [r7, #16]
 8002212:	2b00      	cmp	r3, #0
 8002214:	d1e7      	bne.n	80021e6 <LL_USART_EnableDMAReq_RX+0x8>
}
 8002216:	bf00      	nop
 8002218:	bf00      	nop
 800221a:	3724      	adds	r7, #36	@ 0x24
 800221c:	46bd      	mov	sp, r7
 800221e:	f85d 7b04 	ldr.w	r7, [sp], #4
 8002222:	4770      	bx	lr

08002224 <LL_USART_EnableDMAReq_TX>:
  * @rmtoll CR3          DMAT          LL_USART_EnableDMAReq_TX
  * @param  USARTx USART Instance
  * @retval None
  */
__STATIC_INLINE void LL_USART_EnableDMAReq_TX(USART_TypeDef *USARTx)
{
 8002224:	b480      	push	{r7}
 8002226:	b089      	sub	sp, #36	@ 0x24
 8002228:	af00      	add	r7, sp, #0
 800222a:	6078      	str	r0, [r7, #4]
  ATOMIC_SET_BIT(USARTx->CR3, USART_CR3_DMAT);
 800222c:	687b      	ldr	r3, [r7, #4]
 800222e:	3308      	adds	r3, #8
 8002230:	60fb      	str	r3, [r7, #12]
   __ASM volatile ("ldrex %0, %1" : "=r" (result) : "Q" (*addr) );
 8002232:	68fb      	ldr	r3, [r7, #12]
 8002234:	e853 3f00 	ldrex	r3, [r3]
 8002238:	60bb      	str	r3, [r7, #8]
   return(result);
 800223a:	68bb      	ldr	r3, [r7, #8]
 800223c:	f043 0380 	orr.w	r3, r3, #128	@ 0x80
 8002240:	61fb      	str	r3, [r7, #28]
 8002242:	687b      	ldr	r3, [r7, #4]
 8002244:	3308      	adds	r3, #8
 8002246:	69fa      	ldr	r2, [r7, #28]
 8002248:	61ba      	str	r2, [r7, #24]
 800224a:	617b      	str	r3, [r7, #20]
   __ASM volatile ("strex %0, %2, %1" : "=&r" (result), "=Q" (*addr) : "r" (value) );
 800224c:	6979      	ldr	r1, [r7, #20]
 800224e:	69ba      	ldr	r2, [r7, #24]
 8002250:	e841 2300 	strex	r3, r2, [r1]
 8002254:	613b      	str	r3, [r7, #16]
   return(result);
 8002256:	693b      	ldr	r3, [r7, #16]
 8002258:	2b00      	cmp	r3, #0
 800225a:	d1e7      	bne.n	800222c <LL_USART_EnableDMAReq_TX+0x8>
}
 800225c:	bf00      	nop
 800225e:	bf00      	nop
 8002260:	3724      	adds	r7, #36	@ 0x24
 8002262:	46bd      	mov	sp, r7
 8002264:	f85d 7b04 	ldr.w	r7, [sp], #4
 8002268:	4770      	bx	lr

0800226a <LL_USART_DMA_GetRegAddr>:
  *         @arg @ref LL_USART_DMA_REG_DATA_TRANSMIT
  *         @arg @ref LL_USART_DMA_REG_DATA_RECEIVE
  * @retval Address of data register
  */
__STATIC_INLINE uint32_t LL_USART_DMA_GetRegAddr(const USART_TypeDef *USARTx, uint32_t Direction)
{
 800226a:	b480      	push	{r7}
 800226c:	b085      	sub	sp, #20
 800226e:	af00      	add	r7, sp, #0
 8002270:	6078      	str	r0, [r7, #4]
 8002272:	6039      	str	r1, [r7, #0]
  uint32_t data_reg_addr;

  if (Direction == LL_USART_DMA_REG_DATA_TRANSMIT)
 8002274:	683b      	ldr	r3, [r7, #0]
 8002276:	2b00      	cmp	r3, #0
 8002278:	d103      	bne.n	8002282 <LL_USART_DMA_GetRegAddr+0x18>
  {
    /* return address of TDR register */
    data_reg_addr = (uint32_t) &(USARTx->TDR);
 800227a:	687b      	ldr	r3, [r7, #4]
 800227c:	3328      	adds	r3, #40	@ 0x28
 800227e:	60fb      	str	r3, [r7, #12]
 8002280:	e002      	b.n	8002288 <LL_USART_DMA_GetRegAddr+0x1e>
  }
  else
  {
    /* return address of RDR register */
    data_reg_addr = (uint32_t) &(USARTx->RDR);
 8002282:	687b      	ldr	r3, [r7, #4]
 8002284:	3324      	adds	r3, #36	@ 0x24
 8002286:	60fb      	str	r3, [r7, #12]
  }

  return data_reg_addr;
 8002288:	68fb      	ldr	r3, [r7, #12]
}
 800228a:	4618      	mov	r0, r3
 800228c:	3714      	adds	r7, #20
 800228e:	46bd      	mov	sp, r7
 8002290:	f85d 7b04 	ldr.w	r7, [sp], #4
 8002294:	4770      	bx	lr

08002296 <LL_USART_ReceiveData8>:
  * @rmtoll RDR          RDR           LL_USART_ReceiveData8
  * @param  USARTx USART Instance
  * @retval Value between Min_Data=0x00 and Max_Data=0xFF
  */
__STATIC_INLINE uint8_t LL_USART_ReceiveData8(const USART_TypeDef *USARTx)
{
 8002296:	b480      	push	{r7}
 8002298:	b083      	sub	sp, #12
 800229a:	af00      	add	r7, sp, #0
 800229c:	6078      	str	r0, [r7, #4]
  return (uint8_t)(READ_BIT(USARTx->RDR, USART_RDR_RDR) & 0xFFU);
 800229e:	687b      	ldr	r3, [r7, #4]
 80022a0:	6a5b      	ldr	r3, [r3, #36]	@ 0x24
 80022a2:	b2db      	uxtb	r3, r3
}
 80022a4:	4618      	mov	r0, r3
 80022a6:	370c      	adds	r7, #12
 80022a8:	46bd      	mov	sp, r7
 80022aa:	f85d 7b04 	ldr.w	r7, [sp], #4
 80022ae:	4770      	bx	lr

080022b0 <uDMA1_Channel3_IRQHandler>:
int32_t tick_h_tmp = TICK_H_INI;


// ------------------------- 	INTERRUPT HANDLERS 	-------------------------

void uDMA1_Channel3_IRQHandler(void) {		// USART TX
 80022b0:	b580      	push	{r7, lr}
 80022b2:	af00      	add	r7, sp, #0
	if (LL_DMA_IsActiveFlag_TC3(DMA1)) {
 80022b4:	4807      	ldr	r0, [pc, #28]	@ (80022d4 <uDMA1_Channel3_IRQHandler+0x24>)
 80022b6:	f7ff fe3f 	bl	8001f38 <LL_DMA_IsActiveFlag_TC3>
 80022ba:	4603      	mov	r3, r0
 80022bc:	2b00      	cmp	r3, #0
 80022be:	d006      	beq.n	80022ce <uDMA1_Channel3_IRQHandler+0x1e>
	    LL_DMA_ClearFlag_TC3(DMA1);
 80022c0:	4804      	ldr	r0, [pc, #16]	@ (80022d4 <uDMA1_Channel3_IRQHandler+0x24>)
 80022c2:	f7ff fe75 	bl	8001fb0 <LL_DMA_ClearFlag_TC3>
	    LL_DMA_DisableChannel(DMA1, LL_DMA_CHANNEL_3);
 80022c6:	2102      	movs	r1, #2
 80022c8:	4802      	ldr	r0, [pc, #8]	@ (80022d4 <uDMA1_Channel3_IRQHandler+0x24>)
 80022ca:	f7ff fd5d 	bl	8001d88 <LL_DMA_DisableChannel>
	}
}
 80022ce:	bf00      	nop
 80022d0:	bd80      	pop	{r7, pc}
 80022d2:	bf00      	nop
 80022d4:	40020000 	.word	0x40020000

080022d8 <uDMA1_Channel4_IRQHandler>:

void uDMA1_Channel4_IRQHandler(void) {		// USART RX
 80022d8:	b580      	push	{r7, lr}
 80022da:	af00      	add	r7, sp, #0
	ON_15;
 80022dc:	f44f 4100 	mov.w	r1, #32768	@ 0x8000
 80022e0:	f04f 4090 	mov.w	r0, #1207959552	@ 0x48000000
 80022e4:	f7ff fc9a 	bl	8001c1c <LL_GPIO_SetOutputPin>
	ON_7;
 80022e8:	2180      	movs	r1, #128	@ 0x80
 80022ea:	f04f 4090 	mov.w	r0, #1207959552	@ 0x48000000
 80022ee:	f7ff fc95 	bl	8001c1c <LL_GPIO_SetOutputPin>
	OFF_7;
 80022f2:	2180      	movs	r1, #128	@ 0x80
 80022f4:	f04f 4090 	mov.w	r0, #1207959552	@ 0x48000000
 80022f8:	f7ff fc9e 	bl	8001c38 <LL_GPIO_ResetOutputPin>
	LL_DMA_DisableChannel(DMA1, LL_DMA_CHANNEL_4);
 80022fc:	2103      	movs	r1, #3
 80022fe:	4814      	ldr	r0, [pc, #80]	@ (8002350 <uDMA1_Channel4_IRQHandler+0x78>)
 8002300:	f7ff fd42 	bl	8001d88 <LL_DMA_DisableChannel>
	if (LL_DMA_IsActiveFlag_TC4(DMA1)){
 8002304:	4812      	ldr	r0, [pc, #72]	@ (8002350 <uDMA1_Channel4_IRQHandler+0x78>)
 8002306:	f7ff fe2b 	bl	8001f60 <LL_DMA_IsActiveFlag_TC4>
 800230a:	4603      	mov	r3, r0
 800230c:	2b00      	cmp	r3, #0
 800230e:	d005      	beq.n	800231c <uDMA1_Channel4_IRQHandler+0x44>
        new_rx = true;
 8002310:	4b10      	ldr	r3, [pc, #64]	@ (8002354 <uDMA1_Channel4_IRQHandler+0x7c>)
 8002312:	2201      	movs	r2, #1
 8002314:	701a      	strb	r2, [r3, #0]
    	LL_DMA_ClearFlag_TC4(DMA1);
 8002316:	480e      	ldr	r0, [pc, #56]	@ (8002350 <uDMA1_Channel4_IRQHandler+0x78>)
 8002318:	f7ff fe58 	bl	8001fcc <LL_DMA_ClearFlag_TC4>
    }
    if (LL_DMA_IsActiveFlag_TE4(DMA1)){
 800231c:	480c      	ldr	r0, [pc, #48]	@ (8002350 <uDMA1_Channel4_IRQHandler+0x78>)
 800231e:	f7ff fe33 	bl	8001f88 <LL_DMA_IsActiveFlag_TE4>
 8002322:	4603      	mov	r3, r0
 8002324:	2b00      	cmp	r3, #0
 8002326:	d002      	beq.n	800232e <uDMA1_Channel4_IRQHandler+0x56>
        LL_DMA_ClearFlag_TE4(DMA1);
 8002328:	4809      	ldr	r0, [pc, #36]	@ (8002350 <uDMA1_Channel4_IRQHandler+0x78>)
 800232a:	f7ff fe5d 	bl	8001fe8 <LL_DMA_ClearFlag_TE4>
        // Handle DMA error
    }
	LL_DMA_SetDataLength(DMA1, LL_DMA_CHANNEL_4, RX_SIZE);
 800232e:	220a      	movs	r2, #10
 8002330:	2103      	movs	r1, #3
 8002332:	4807      	ldr	r0, [pc, #28]	@ (8002350 <uDMA1_Channel4_IRQHandler+0x78>)
 8002334:	f7ff fd68 	bl	8001e08 <LL_DMA_SetDataLength>
	LL_DMA_EnableChannel(DMA1, LL_DMA_CHANNEL_4);
 8002338:	2103      	movs	r1, #3
 800233a:	4805      	ldr	r0, [pc, #20]	@ (8002350 <uDMA1_Channel4_IRQHandler+0x78>)
 800233c:	f7ff fd02 	bl	8001d44 <LL_DMA_EnableChannel>
	OFF_15;
 8002340:	f44f 4100 	mov.w	r1, #32768	@ 0x8000
 8002344:	f04f 4090 	mov.w	r0, #1207959552	@ 0x48000000
 8002348:	f7ff fc76 	bl	8001c38 <LL_GPIO_ResetOutputPin>
}
 800234c:	bf00      	nop
 800234e:	bd80      	pop	{r7, pc}
 8002350:	40020000 	.word	0x40020000
 8002354:	2000004c 	.word	0x2000004c

08002358 <uTIM6_IRQHandler>:

void uTIM6_IRQHandler(void) {				// Currently running @ 5 kHz. Triggers screen update and other timed events
 8002358:	b580      	push	{r7, lr}
 800235a:	af00      	add	r7, sp, #0
//	static uint16_t irq_cnt = 0;			// Counts from 0-4999 each time TIM6 IRQ is run (@ 5 kHz | 200 uS intervals)
	static uint8_t msec_cnt = 0;
	if (LL_TIM_IsActiveFlag_UPDATE(TIM6)) {
 800235c:	480d      	ldr	r0, [pc, #52]	@ (8002394 <uTIM6_IRQHandler+0x3c>)
 800235e:	f7ff fcbe 	bl	8001cde <LL_TIM_IsActiveFlag_UPDATE>
 8002362:	4603      	mov	r3, r0
 8002364:	2b00      	cmp	r3, #0
 8002366:	d012      	beq.n	800238e <uTIM6_IRQHandler+0x36>
        LL_TIM_ClearFlag_UPDATE(TIM6);
 8002368:	480a      	ldr	r0, [pc, #40]	@ (8002394 <uTIM6_IRQHandler+0x3c>)
 800236a:	f7ff fcaa 	bl	8001cc2 <LL_TIM_ClearFlag_UPDATE>
		if (msec_cnt++ == 4) {
 800236e:	4b0a      	ldr	r3, [pc, #40]	@ (8002398 <uTIM6_IRQHandler+0x40>)
 8002370:	781b      	ldrb	r3, [r3, #0]
 8002372:	1c5a      	adds	r2, r3, #1
 8002374:	b2d1      	uxtb	r1, r2
 8002376:	4a08      	ldr	r2, [pc, #32]	@ (8002398 <uTIM6_IRQHandler+0x40>)
 8002378:	7011      	strb	r1, [r2, #0]
 800237a:	2b04      	cmp	r3, #4
 800237c:	d107      	bne.n	800238e <uTIM6_IRQHandler+0x36>
        	miliseconds++;
 800237e:	4b07      	ldr	r3, [pc, #28]	@ (800239c <uTIM6_IRQHandler+0x44>)
 8002380:	681b      	ldr	r3, [r3, #0]
 8002382:	3301      	adds	r3, #1
 8002384:	4a05      	ldr	r2, [pc, #20]	@ (800239c <uTIM6_IRQHandler+0x44>)
 8002386:	6013      	str	r3, [r2, #0]
        	msec_cnt = 0;
 8002388:	4b03      	ldr	r3, [pc, #12]	@ (8002398 <uTIM6_IRQHandler+0x40>)
 800238a:	2200      	movs	r2, #0
 800238c:	701a      	strb	r2, [r3, #0]
		}
 //       if (irq_cnt++ == 4999) {
 //       	irq_cnt = 0;
 //       }
	}
}
 800238e:	bf00      	nop
 8002390:	bd80      	pop	{r7, pc}
 8002392:	bf00      	nop
 8002394:	40001000 	.word	0x40001000
 8002398:	2000005a 	.word	0x2000005a
 800239c:	20000048 	.word	0x20000048

080023a0 <uTIM2_IRQHandler>:

void uTIM2_IRQHandler(void) {				// Triggers lamp output
 80023a0:	b580      	push	{r7, lr}
 80023a2:	af00      	add	r7, sp, #0
//	if (LL_TIM_IsActiveFlag_UPDATE(TIM2)) {
        LL_TIM_ClearFlag_UPDATE(TIM2);
 80023a4:	f04f 4080 	mov.w	r0, #1073741824	@ 0x40000000
 80023a8:	f7ff fc8b 	bl	8001cc2 <LL_TIM_ClearFlag_UPDATE>
		if (outen) {						// Lamp was enabled
 80023ac:	4b1b      	ldr	r3, [pc, #108]	@ (800241c <uTIM2_IRQHandler+0x7c>)
 80023ae:	781b      	ldrb	r3, [r3, #0]
 80023b0:	b2db      	uxtb	r3, r3
 80023b2:	2b00      	cmp	r3, #0
 80023b4:	d010      	beq.n	80023d8 <uTIM2_IRQHandler+0x38>
			LAMP_OFF;
 80023b6:	f44f 6100 	mov.w	r1, #2048	@ 0x800
 80023ba:	f04f 4090 	mov.w	r0, #1207959552	@ 0x48000000
 80023be:	f7ff fc3b 	bl	8001c38 <LL_GPIO_ResetOutputPin>
			outen = 0;
 80023c2:	4b16      	ldr	r3, [pc, #88]	@ (800241c <uTIM2_IRQHandler+0x7c>)
 80023c4:	2200      	movs	r2, #0
 80023c6:	701a      	strb	r2, [r3, #0]
			LL_TIM_SetAutoReload(TIM2, tick_l);
 80023c8:	4b15      	ldr	r3, [pc, #84]	@ (8002420 <uTIM2_IRQHandler+0x80>)
 80023ca:	681b      	ldr	r3, [r3, #0]
 80023cc:	4619      	mov	r1, r3
 80023ce:	f04f 4080 	mov.w	r0, #1073741824	@ 0x40000000
 80023d2:	f7ff fc68 	bl	8001ca6 <LL_TIM_SetAutoReload>
 80023d6:	e00f      	b.n	80023f8 <uTIM2_IRQHandler+0x58>
		} else {							// Lamp was disabled
			LL_TIM_SetAutoReload(TIM2, tick_h);
 80023d8:	4b12      	ldr	r3, [pc, #72]	@ (8002424 <uTIM2_IRQHandler+0x84>)
 80023da:	681b      	ldr	r3, [r3, #0]
 80023dc:	4619      	mov	r1, r3
 80023de:	f04f 4080 	mov.w	r0, #1073741824	@ 0x40000000
 80023e2:	f7ff fc60 	bl	8001ca6 <LL_TIM_SetAutoReload>
			LAMP_ON;
 80023e6:	f44f 6100 	mov.w	r1, #2048	@ 0x800
 80023ea:	f04f 4090 	mov.w	r0, #1207959552	@ 0x48000000
 80023ee:	f7ff fc15 	bl	8001c1c <LL_GPIO_SetOutputPin>
			outen = 1;
 80023f2:	4b0a      	ldr	r3, [pc, #40]	@ (800241c <uTIM2_IRQHandler+0x7c>)
 80023f4:	2201      	movs	r2, #1
 80023f6:	701a      	strb	r2, [r3, #0]
		}
//	}
	if (tick_upd) {
 80023f8:	4b0b      	ldr	r3, [pc, #44]	@ (8002428 <uTIM2_IRQHandler+0x88>)
 80023fa:	781b      	ldrb	r3, [r3, #0]
 80023fc:	b2db      	uxtb	r3, r3
 80023fe:	2b00      	cmp	r3, #0
 8002400:	d00a      	beq.n	8002418 <uTIM2_IRQHandler+0x78>
		tick_upd = false;
 8002402:	4b09      	ldr	r3, [pc, #36]	@ (8002428 <uTIM2_IRQHandler+0x88>)
 8002404:	2200      	movs	r2, #0
 8002406:	701a      	strb	r2, [r3, #0]
		tick_l = tick_l_tmp;
 8002408:	4b08      	ldr	r3, [pc, #32]	@ (800242c <uTIM2_IRQHandler+0x8c>)
 800240a:	681b      	ldr	r3, [r3, #0]
 800240c:	4a04      	ldr	r2, [pc, #16]	@ (8002420 <uTIM2_IRQHandler+0x80>)
 800240e:	6013      	str	r3, [r2, #0]
		tick_h = tick_h_tmp;
 8002410:	4b07      	ldr	r3, [pc, #28]	@ (8002430 <uTIM2_IRQHandler+0x90>)
 8002412:	681b      	ldr	r3, [r3, #0]
 8002414:	4a03      	ldr	r2, [pc, #12]	@ (8002424 <uTIM2_IRQHandler+0x84>)
 8002416:	6013      	str	r3, [r2, #0]
	}
}
 8002418:	bf00      	nop
 800241a:	bd80      	pop	{r7, pc}
 800241c:	2000004d 	.word	0x2000004d
 8002420:	20000018 	.word	0x20000018
 8002424:	2000001c 	.word	0x2000001c
 8002428:	2000004e 	.word	0x2000004e
 800242c:	20000020 	.word	0x20000020
 8002430:	20000024 	.word	0x20000024

08002434 <UART1_Transmit_DMA>:


// ------------------------- 	OTHER FUNCTIONS		-------------------------

void UART1_Transmit_DMA(uint8_t* buff, uint8_t len) {
 8002434:	b580      	push	{r7, lr}
 8002436:	b082      	sub	sp, #8
 8002438:	af00      	add	r7, sp, #0
 800243a:	6078      	str	r0, [r7, #4]
 800243c:	460b      	mov	r3, r1
 800243e:	70fb      	strb	r3, [r7, #3]
    LL_DMA_DisableChannel(DMA1, LL_DMA_CHANNEL_3);
 8002440:	2102      	movs	r1, #2
 8002442:	480b      	ldr	r0, [pc, #44]	@ (8002470 <UART1_Transmit_DMA+0x3c>)
 8002444:	f7ff fca0 	bl	8001d88 <LL_DMA_DisableChannel>
    LL_DMA_SetMemoryAddress(DMA1, LL_DMA_CHANNEL_3, (uint32_t)buff);
 8002448:	687b      	ldr	r3, [r7, #4]
 800244a:	461a      	mov	r2, r3
 800244c:	2102      	movs	r1, #2
 800244e:	4808      	ldr	r0, [pc, #32]	@ (8002470 <UART1_Transmit_DMA+0x3c>)
 8002450:	f7ff fd3e 	bl	8001ed0 <LL_DMA_SetMemoryAddress>
    LL_DMA_SetDataLength(DMA1, LL_DMA_CHANNEL_3, len);
 8002454:	78fb      	ldrb	r3, [r7, #3]
 8002456:	461a      	mov	r2, r3
 8002458:	2102      	movs	r1, #2
 800245a:	4805      	ldr	r0, [pc, #20]	@ (8002470 <UART1_Transmit_DMA+0x3c>)
 800245c:	f7ff fcd4 	bl	8001e08 <LL_DMA_SetDataLength>
    LL_DMA_EnableChannel(DMA1, LL_DMA_CHANNEL_3);
 8002460:	2102      	movs	r1, #2
 8002462:	4803      	ldr	r0, [pc, #12]	@ (8002470 <UART1_Transmit_DMA+0x3c>)
 8002464:	f7ff fc6e 	bl	8001d44 <LL_DMA_EnableChannel>
}
 8002468:	bf00      	nop
 800246a:	3708      	adds	r7, #8
 800246c:	46bd      	mov	sp, r7
 800246e:	bd80      	pop	{r7, pc}
 8002470:	40020000 	.word	0x40020000
 8002474:	00000000 	.word	0x00000000

08002478 <calc_freq_per>:


void calc_freq_per (void) {
 8002478:	b590      	push	{r4, r7, lr}
 800247a:	b083      	sub	sp, #12
 800247c:	af00      	add	r7, sp, #0
	uint32_t limit_period = LIM_PERCENT *(1000000/param_req[1]); // Calculates maximum period for the new requested frequency
 800247e:	4b2a      	ldr	r3, [pc, #168]	@ (8002528 <calc_freq_per+0xb0>)
 8002480:	685b      	ldr	r3, [r3, #4]
 8002482:	4a2a      	ldr	r2, [pc, #168]	@ (800252c <calc_freq_per+0xb4>)
 8002484:	fb92 f3f3 	sdiv	r3, r2, r3
 8002488:	2232      	movs	r2, #50	@ 0x32
 800248a:	fb02 f303 	mul.w	r3, r2, r3
 800248e:	607b      	str	r3, [r7, #4]
	if (param_req[0] > limit_period) {
 8002490:	4b25      	ldr	r3, [pc, #148]	@ (8002528 <calc_freq_per+0xb0>)
 8002492:	681b      	ldr	r3, [r3, #0]
 8002494:	461a      	mov	r2, r3
 8002496:	687b      	ldr	r3, [r7, #4]
 8002498:	4293      	cmp	r3, r2
 800249a:	d202      	bcs.n	80024a2 <calc_freq_per+0x2a>
		param_req[0] = limit_period;
 800249c:	687b      	ldr	r3, [r7, #4]
 800249e:	4a22      	ldr	r2, [pc, #136]	@ (8002528 <calc_freq_per+0xb0>)
 80024a0:	6013      	str	r3, [r2, #0]
	}
	tick_h_tmp = ((375 * param_req[0]) / 10) + TICK_ADJ;
 80024a2:	4b21      	ldr	r3, [pc, #132]	@ (8002528 <calc_freq_per+0xb0>)
 80024a4:	681b      	ldr	r3, [r3, #0]
 80024a6:	f240 1277 	movw	r2, #375	@ 0x177
 80024aa:	fb02 f303 	mul.w	r3, r2, r3
 80024ae:	4a20      	ldr	r2, [pc, #128]	@ (8002530 <calc_freq_per+0xb8>)
 80024b0:	fb82 4203 	smull	r4, r2, r2, r3
 80024b4:	1092      	asrs	r2, r2, #2
 80024b6:	17db      	asrs	r3, r3, #31
 80024b8:	1ad3      	subs	r3, r2, r3
 80024ba:	330f      	adds	r3, #15
 80024bc:	4a1d      	ldr	r2, [pc, #116]	@ (8002534 <calc_freq_per+0xbc>)
 80024be:	6013      	str	r3, [r2, #0]
	tick_l_tmp = (3750000000 / param_req[1]) - tick_h_tmp;
 80024c0:	4b19      	ldr	r3, [pc, #100]	@ (8002528 <calc_freq_per+0xb0>)
 80024c2:	685b      	ldr	r3, [r3, #4]
 80024c4:	17da      	asrs	r2, r3, #31
 80024c6:	4618      	mov	r0, r3
 80024c8:	4611      	mov	r1, r2
 80024ca:	4602      	mov	r2, r0
 80024cc:	460b      	mov	r3, r1
 80024ce:	a114      	add	r1, pc, #80	@ (adr r1, 8002520 <calc_freq_per+0xa8>)
 80024d0:	e9d1 0100 	ldrd	r0, r1, [r1]
 80024d4:	f7fd fea0 	bl	8000218 <__aeabi_ldivmod>
 80024d8:	4602      	mov	r2, r0
 80024da:	460b      	mov	r3, r1
 80024dc:	4b15      	ldr	r3, [pc, #84]	@ (8002534 <calc_freq_per+0xbc>)
 80024de:	681b      	ldr	r3, [r3, #0]
 80024e0:	1ad3      	subs	r3, r2, r3
 80024e2:	461a      	mov	r2, r3
 80024e4:	4b14      	ldr	r3, [pc, #80]	@ (8002538 <calc_freq_per+0xc0>)
 80024e6:	601a      	str	r2, [r3, #0]

	tick_upd = true;
 80024e8:	4b14      	ldr	r3, [pc, #80]	@ (800253c <calc_freq_per+0xc4>)
 80024ea:	2201      	movs	r2, #1
 80024ec:	701a      	strb	r2, [r3, #0]
	if ((tick_h_tmp != tick_h) || (tick_l_tmp != tick_l)) {
 80024ee:	4b11      	ldr	r3, [pc, #68]	@ (8002534 <calc_freq_per+0xbc>)
 80024f0:	681a      	ldr	r2, [r3, #0]
 80024f2:	4b13      	ldr	r3, [pc, #76]	@ (8002540 <calc_freq_per+0xc8>)
 80024f4:	681b      	ldr	r3, [r3, #0]
 80024f6:	429a      	cmp	r2, r3
 80024f8:	d105      	bne.n	8002506 <calc_freq_per+0x8e>
 80024fa:	4b0f      	ldr	r3, [pc, #60]	@ (8002538 <calc_freq_per+0xc0>)
 80024fc:	681a      	ldr	r2, [r3, #0]
 80024fe:	4b11      	ldr	r3, [pc, #68]	@ (8002544 <calc_freq_per+0xcc>)
 8002500:	681b      	ldr	r3, [r3, #0]
 8002502:	429a      	cmp	r2, r3
 8002504:	d006      	beq.n	8002514 <calc_freq_per+0x9c>
		outen = true;
 8002506:	4b10      	ldr	r3, [pc, #64]	@ (8002548 <calc_freq_per+0xd0>)
 8002508:	2201      	movs	r2, #1
 800250a:	701a      	strb	r2, [r3, #0]
		LL_TIM_GenerateEvent_UPDATE(TIM2); 		// Forces interruption - removes latency specially if switching from a low freq to high freq
 800250c:	f04f 4080 	mov.w	r0, #1073741824	@ 0x40000000
 8002510:	f7ff fc08 	bl	8001d24 <LL_TIM_GenerateEvent_UPDATE>
	}
}
 8002514:	bf00      	nop
 8002516:	370c      	adds	r7, #12
 8002518:	46bd      	mov	sp, r7
 800251a:	bd90      	pop	{r4, r7, pc}
 800251c:	f3af 8000 	nop.w
 8002520:	df847580 	.word	0xdf847580
 8002524:	00000000 	.word	0x00000000
 8002528:	20000000 	.word	0x20000000
 800252c:	000f4240 	.word	0x000f4240
 8002530:	66666667 	.word	0x66666667
 8002534:	20000024 	.word	0x20000024
 8002538:	20000020 	.word	0x20000020
 800253c:	2000004e 	.word	0x2000004e
 8002540:	2000001c 	.word	0x2000001c
 8002544:	20000018 	.word	0x20000018
 8002548:	2000004d 	.word	0x2000004d

0800254c <strobe_config>:
// EXPLAIN THE SOURCE FOR THE ABOVE NUMBERS HERE (375, 10, ETC)
// NEEDS DEBUG, inputs 35.6 Hz & 399.010 ms generate odd output

void strobe_config(void) {						// Carries out general configuration for the board
 800254c:	b580      	push	{r7, lr}
 800254e:	b082      	sub	sp, #8
 8002550:	af02      	add	r7, sp, #8
	calc_freq_per();
 8002552:	f7ff ff91 	bl	8002478 <calc_freq_per>
	while (!LL_ADC_IsActiveFlag_ADRDY(ADC2));
	LL_ADC_REG_StartConversion(ADC2);

*/
	// Timer 2 configuration --------------------------------------------------------------------------------------------
	LAMP_OFF;
 8002556:	f44f 6100 	mov.w	r1, #2048	@ 0x800
 800255a:	f04f 4090 	mov.w	r0, #1207959552	@ 0x48000000
 800255e:	f7ff fb6b 	bl	8001c38 <LL_GPIO_ResetOutputPin>
	tick_l = TICK_L_INI;
 8002562:	4b30      	ldr	r3, [pc, #192]	@ (8002624 <strobe_config+0xd8>)
 8002564:	4a30      	ldr	r2, [pc, #192]	@ (8002628 <strobe_config+0xdc>)
 8002566:	601a      	str	r2, [r3, #0]
	tick_h = TICK_H_INI;
 8002568:	4b30      	ldr	r3, [pc, #192]	@ (800262c <strobe_config+0xe0>)
 800256a:	f640 62a6 	movw	r2, #3750	@ 0xea6
 800256e:	601a      	str	r2, [r3, #0]
	LL_TIM_EnableIT_UPDATE(TIM2);    		// Enable update event interrupt for timer 2
 8002570:	f04f 4080 	mov.w	r0, #1073741824	@ 0x40000000
 8002574:	f7ff fbc6 	bl	8001d04 <LL_TIM_EnableIT_UPDATE>
	LL_TIM_GenerateEvent_UPDATE(TIM2); 		// Forces interruption
 8002578:	f04f 4080 	mov.w	r0, #1073741824	@ 0x40000000
 800257c:	f7ff fbd2 	bl	8001d24 <LL_TIM_GenerateEvent_UPDATE>
	LL_TIM_EnableCounter(TIM2);      		// Start counting
 8002580:	f04f 4080 	mov.w	r0, #1073741824	@ 0x40000000
 8002584:	f7ff fb7f 	bl	8001c86 <LL_TIM_EnableCounter>


	// Timer 6 configuration --------------------------------------------------------------------------------------------
	LL_TIM_EnableIT_UPDATE(TIM6);    		// Enable update event interrupt for timer 6
 8002588:	4829      	ldr	r0, [pc, #164]	@ (8002630 <strobe_config+0xe4>)
 800258a:	f7ff fbbb 	bl	8001d04 <LL_TIM_EnableIT_UPDATE>
	LL_TIM_GenerateEvent_UPDATE(TIM6); 		// Forces interruption
 800258e:	4828      	ldr	r0, [pc, #160]	@ (8002630 <strobe_config+0xe4>)
 8002590:	f7ff fbc8 	bl	8001d24 <LL_TIM_GenerateEvent_UPDATE>
	LL_TIM_EnableCounter(TIM6);      		// Start counting
 8002594:	4826      	ldr	r0, [pc, #152]	@ (8002630 <strobe_config+0xe4>)
 8002596:	f7ff fb76 	bl	8001c86 <LL_TIM_EnableCounter>


	// DMA configuration for USART TX --------------------------------------------------------------------------------------------
	LL_DMA_SetPeriphAddress(DMA1, LL_DMA_CHANNEL_3, (uint32_t)&USART1->TDR);
 800259a:	4a26      	ldr	r2, [pc, #152]	@ (8002634 <strobe_config+0xe8>)
 800259c:	2102      	movs	r1, #2
 800259e:	4826      	ldr	r0, [pc, #152]	@ (8002638 <strobe_config+0xec>)
 80025a0:	f7ff fcb0 	bl	8001f04 <LL_DMA_SetPeriphAddress>
	LL_USART_EnableDMAReq_TX(USART1);
 80025a4:	4825      	ldr	r0, [pc, #148]	@ (800263c <strobe_config+0xf0>)
 80025a6:	f7ff fe3d 	bl	8002224 <LL_USART_EnableDMAReq_TX>
	LL_DMA_DisableChannel(DMA1, LL_DMA_CHANNEL_3);
 80025aa:	2102      	movs	r1, #2
 80025ac:	4822      	ldr	r0, [pc, #136]	@ (8002638 <strobe_config+0xec>)
 80025ae:	f7ff fbeb 	bl	8001d88 <LL_DMA_DisableChannel>
	LL_DMA_EnableIT_TC(DMA1, LL_DMA_CHANNEL_3);
 80025b2:	2102      	movs	r1, #2
 80025b4:	4820      	ldr	r0, [pc, #128]	@ (8002638 <strobe_config+0xec>)
 80025b6:	f7ff fd25 	bl	8002004 <LL_DMA_EnableIT_TC>
//	UART1_Transmit_DMA(uart_tx_buf,9);
//	uDMA1_Channel3_IRQHandler();


	// DMA configuration for USART RX --------------------------------------------------------------------------------------------
	LL_DMA_DisableChannel(DMA1, LL_DMA_CHANNEL_4);
 80025ba:	2103      	movs	r1, #3
 80025bc:	481e      	ldr	r0, [pc, #120]	@ (8002638 <strobe_config+0xec>)
 80025be:	f7ff fbe3 	bl	8001d88 <LL_DMA_DisableChannel>
    LL_DMA_ClearFlag_TC4(DMA1);				// Clear DMA transfer and error flags for channel 4
 80025c2:	481d      	ldr	r0, [pc, #116]	@ (8002638 <strobe_config+0xec>)
 80025c4:	f7ff fd02 	bl	8001fcc <LL_DMA_ClearFlag_TC4>
    LL_DMA_ClearFlag_TE4(DMA1);
 80025c8:	481b      	ldr	r0, [pc, #108]	@ (8002638 <strobe_config+0xec>)
 80025ca:	f7ff fd0d 	bl	8001fe8 <LL_DMA_ClearFlag_TE4>
    LL_DMA_ConfigAddresses(DMA1, LL_DMA_CHANNEL_4,    // Set peripheral and memory addresses and data length
 80025ce:	2101      	movs	r1, #1
 80025d0:	481a      	ldr	r0, [pc, #104]	@ (800263c <strobe_config+0xf0>)
 80025d2:	f7ff fe4a 	bl	800226a <LL_USART_DMA_GetRegAddr>
 80025d6:	4602      	mov	r2, r0
 80025d8:	4919      	ldr	r1, [pc, #100]	@ (8002640 <strobe_config+0xf4>)
 80025da:	2300      	movs	r3, #0
 80025dc:	9300      	str	r3, [sp, #0]
 80025de:	460b      	mov	r3, r1
 80025e0:	2103      	movs	r1, #3
 80025e2:	4815      	ldr	r0, [pc, #84]	@ (8002638 <strobe_config+0xec>)
 80025e4:	f7ff fc36 	bl	8001e54 <LL_DMA_ConfigAddresses>
        LL_USART_DMA_GetRegAddr(USART1, LL_USART_DMA_REG_DATA_RECEIVE),
        (uint32_t)uart_rx_buf,
        LL_DMA_DIRECTION_PERIPH_TO_MEMORY);
    LL_DMA_SetDataLength(DMA1, LL_DMA_CHANNEL_4, RX_SIZE);
 80025e8:	220a      	movs	r2, #10
 80025ea:	2103      	movs	r1, #3
 80025ec:	4812      	ldr	r0, [pc, #72]	@ (8002638 <strobe_config+0xec>)
 80025ee:	f7ff fc0b 	bl	8001e08 <LL_DMA_SetDataLength>
    LL_DMA_EnableChannel(DMA1, LL_DMA_CHANNEL_4);	    // Enable DMA channel to start reception
 80025f2:	2103      	movs	r1, #3
 80025f4:	4810      	ldr	r0, [pc, #64]	@ (8002638 <strobe_config+0xec>)
 80025f6:	f7ff fba5 	bl	8001d44 <LL_DMA_EnableChannel>
    LL_USART_EnableDMAReq_RX(USART1);
 80025fa:	4810      	ldr	r0, [pc, #64]	@ (800263c <strobe_config+0xf0>)
 80025fc:	f7ff fdef 	bl	80021de <LL_USART_EnableDMAReq_RX>
    LL_DMA_EnableIT_TC(DMA1, LL_DMA_CHANNEL_4);  // Transfer complete interrupt
 8002600:	2103      	movs	r1, #3
 8002602:	480d      	ldr	r0, [pc, #52]	@ (8002638 <strobe_config+0xec>)
 8002604:	f7ff fcfe 	bl	8002004 <LL_DMA_EnableIT_TC>
    LL_DMA_EnableIT_TE(DMA1, LL_DMA_CHANNEL_4);  // Transfer error interrupt (optional)
 8002608:	2103      	movs	r1, #3
 800260a:	480b      	ldr	r0, [pc, #44]	@ (8002638 <strobe_config+0xec>)
 800260c:	f7ff fd1c 	bl	8002048 <LL_DMA_EnableIT_TE>

    LL_USART_Disable(USART1);				// RESET UART (otherwise power cycle is required for proper execution)
 8002610:	480a      	ldr	r0, [pc, #40]	@ (800263c <strobe_config+0xf0>)
 8002612:	f7ff fd4b 	bl	80020ac <LL_USART_Disable>
    LL_USART_Enable(USART1);
 8002616:	4809      	ldr	r0, [pc, #36]	@ (800263c <strobe_config+0xf0>)
 8002618:	f7ff fd38 	bl	800208c <LL_USART_Enable>
}
 800261c:	bf00      	nop
 800261e:	46bd      	mov	sp, r7
 8002620:	bd80      	pop	{r7, pc}
 8002622:	bf00      	nop
 8002624:	20000018 	.word	0x20000018
 8002628:	0005aa32 	.word	0x0005aa32
 800262c:	2000001c 	.word	0x2000001c
 8002630:	40001000 	.word	0x40001000
 8002634:	40013828 	.word	0x40013828
 8002638:	40020000 	.word	0x40020000
 800263c:	40013800 	.word	0x40013800
 8002640:	20000050 	.word	0x20000050

08002644 <uart_rx>:


bool uart_rx (void) {
 8002644:	b580      	push	{r7, lr}
 8002646:	b084      	sub	sp, #16
 8002648:	af00      	add	r7, sp, #0
	static uint8_t sync_del;
	uint8_t crc = 0;
 800264a:	2300      	movs	r3, #0
 800264c:	73fb      	strb	r3, [r7, #15]
	bool rx_status = false;
 800264e:	2300      	movs	r3, #0
 8002650:	73bb      	strb	r3, [r7, #14]
	for(uint8_t i = 0; i < RX_SIZE - 1; i++) {	// Calculates CRC on the new data
 8002652:	2300      	movs	r3, #0
 8002654:	737b      	strb	r3, [r7, #13]
 8002656:	e023      	b.n	80026a0 <uart_rx+0x5c>
		crc ^= uart_rx_buf[i];
 8002658:	7b7b      	ldrb	r3, [r7, #13]
 800265a:	4a53      	ldr	r2, [pc, #332]	@ (80027a8 <uart_rx+0x164>)
 800265c:	5cd3      	ldrb	r3, [r2, r3]
 800265e:	b2da      	uxtb	r2, r3
 8002660:	7bfb      	ldrb	r3, [r7, #15]
 8002662:	4053      	eors	r3, r2
 8002664:	73fb      	strb	r3, [r7, #15]
		for(uint8_t j = 0; j < 8; j++) {
 8002666:	2300      	movs	r3, #0
 8002668:	733b      	strb	r3, [r7, #12]
 800266a:	e013      	b.n	8002694 <uart_rx+0x50>
			crc = (crc & 0x80) ? (crc << 1) ^ 0x07 : (crc << 1);
 800266c:	f997 300f 	ldrsb.w	r3, [r7, #15]
 8002670:	2b00      	cmp	r3, #0
 8002672:	da08      	bge.n	8002686 <uart_rx+0x42>
 8002674:	f997 300f 	ldrsb.w	r3, [r7, #15]
 8002678:	005b      	lsls	r3, r3, #1
 800267a:	b25b      	sxtb	r3, r3
 800267c:	f083 0307 	eor.w	r3, r3, #7
 8002680:	b25b      	sxtb	r3, r3
 8002682:	b2db      	uxtb	r3, r3
 8002684:	e002      	b.n	800268c <uart_rx+0x48>
 8002686:	7bfb      	ldrb	r3, [r7, #15]
 8002688:	005b      	lsls	r3, r3, #1
 800268a:	b2db      	uxtb	r3, r3
 800268c:	73fb      	strb	r3, [r7, #15]
		for(uint8_t j = 0; j < 8; j++) {
 800268e:	7b3b      	ldrb	r3, [r7, #12]
 8002690:	3301      	adds	r3, #1
 8002692:	733b      	strb	r3, [r7, #12]
 8002694:	7b3b      	ldrb	r3, [r7, #12]
 8002696:	2b07      	cmp	r3, #7
 8002698:	d9e8      	bls.n	800266c <uart_rx+0x28>
	for(uint8_t i = 0; i < RX_SIZE - 1; i++) {	// Calculates CRC on the new data
 800269a:	7b7b      	ldrb	r3, [r7, #13]
 800269c:	3301      	adds	r3, #1
 800269e:	737b      	strb	r3, [r7, #13]
 80026a0:	7b7b      	ldrb	r3, [r7, #13]
 80026a2:	2b08      	cmp	r3, #8
 80026a4:	d9d8      	bls.n	8002658 <uart_rx+0x14>
		}
	}
	if (crc == uart_rx_buf[RX_SIZE - 1]) {		// CRC is valid
 80026a6:	4b40      	ldr	r3, [pc, #256]	@ (80027a8 <uart_rx+0x164>)
 80026a8:	7a5b      	ldrb	r3, [r3, #9]
 80026aa:	b2db      	uxtb	r3, r3
 80026ac:	7bfa      	ldrb	r2, [r7, #15]
 80026ae:	429a      	cmp	r2, r3
 80026b0:	d150      	bne.n	8002754 <uart_rx+0x110>
		rx_status = true;
 80026b2:	2301      	movs	r3, #1
 80026b4:	73bb      	strb	r3, [r7, #14]
		uint32_t rxtemp;
		for (uint8_t i = 0; i < PARAMS; i++) {	// Converts each sequence of 3 bytes into a 24 bit value
 80026b6:	2300      	movs	r3, #0
 80026b8:	72fb      	strb	r3, [r7, #11]
 80026ba:	e047      	b.n	800274c <uart_rx+0x108>
			rxtemp = (uart_rx_buf[3 * i]) | ((uart_rx_buf[3 * i + 1]) << 8) | ((uart_rx_buf[3 * i + 2]) << 16);
 80026bc:	7afa      	ldrb	r2, [r7, #11]
 80026be:	4613      	mov	r3, r2
 80026c0:	005b      	lsls	r3, r3, #1
 80026c2:	4413      	add	r3, r2
 80026c4:	4a38      	ldr	r2, [pc, #224]	@ (80027a8 <uart_rx+0x164>)
 80026c6:	5cd3      	ldrb	r3, [r2, r3]
 80026c8:	b2db      	uxtb	r3, r3
 80026ca:	4619      	mov	r1, r3
 80026cc:	7afa      	ldrb	r2, [r7, #11]
 80026ce:	4613      	mov	r3, r2
 80026d0:	005b      	lsls	r3, r3, #1
 80026d2:	4413      	add	r3, r2
 80026d4:	3301      	adds	r3, #1
 80026d6:	4a34      	ldr	r2, [pc, #208]	@ (80027a8 <uart_rx+0x164>)
 80026d8:	5cd3      	ldrb	r3, [r2, r3]
 80026da:	b2db      	uxtb	r3, r3
 80026dc:	021b      	lsls	r3, r3, #8
 80026de:	4319      	orrs	r1, r3
 80026e0:	7afa      	ldrb	r2, [r7, #11]
 80026e2:	4613      	mov	r3, r2
 80026e4:	005b      	lsls	r3, r3, #1
 80026e6:	4413      	add	r3, r2
 80026e8:	3302      	adds	r3, #2
 80026ea:	4a2f      	ldr	r2, [pc, #188]	@ (80027a8 <uart_rx+0x164>)
 80026ec:	5cd3      	ldrb	r3, [r2, r3]
 80026ee:	b2db      	uxtb	r3, r3
 80026f0:	041b      	lsls	r3, r3, #16
 80026f2:	430b      	orrs	r3, r1
 80026f4:	607b      	str	r3, [r7, #4]
			if (rxtemp > param_max[i]) {			// Only stores data if within the limits specified
 80026f6:	7afb      	ldrb	r3, [r7, #11]
 80026f8:	4a2c      	ldr	r2, [pc, #176]	@ (80027ac <uart_rx+0x168>)
 80026fa:	f852 3023 	ldr.w	r3, [r2, r3, lsl #2]
 80026fe:	687a      	ldr	r2, [r7, #4]
 8002700:	429a      	cmp	r2, r3
 8002702:	d909      	bls.n	8002718 <uart_rx+0xd4>
				param_req[i] = param_max[i];
 8002704:	7afb      	ldrb	r3, [r7, #11]
 8002706:	4a29      	ldr	r2, [pc, #164]	@ (80027ac <uart_rx+0x168>)
 8002708:	f852 2023 	ldr.w	r2, [r2, r3, lsl #2]
 800270c:	7afb      	ldrb	r3, [r7, #11]
 800270e:	4611      	mov	r1, r2
 8002710:	4a27      	ldr	r2, [pc, #156]	@ (80027b0 <uart_rx+0x16c>)
 8002712:	f842 1023 	str.w	r1, [r2, r3, lsl #2]
 8002716:	e016      	b.n	8002746 <uart_rx+0x102>
			} else if (rxtemp < param_min[i]) {
 8002718:	7afb      	ldrb	r3, [r7, #11]
 800271a:	4a26      	ldr	r2, [pc, #152]	@ (80027b4 <uart_rx+0x170>)
 800271c:	f832 3013 	ldrh.w	r3, [r2, r3, lsl #1]
 8002720:	461a      	mov	r2, r3
 8002722:	687b      	ldr	r3, [r7, #4]
 8002724:	4293      	cmp	r3, r2
 8002726:	d209      	bcs.n	800273c <uart_rx+0xf8>
				param_req[i] = param_min[i];
 8002728:	7afb      	ldrb	r3, [r7, #11]
 800272a:	4a22      	ldr	r2, [pc, #136]	@ (80027b4 <uart_rx+0x170>)
 800272c:	f832 2013 	ldrh.w	r2, [r2, r3, lsl #1]
 8002730:	7afb      	ldrb	r3, [r7, #11]
 8002732:	4611      	mov	r1, r2
 8002734:	4a1e      	ldr	r2, [pc, #120]	@ (80027b0 <uart_rx+0x16c>)
 8002736:	f842 1023 	str.w	r1, [r2, r3, lsl #2]
 800273a:	e004      	b.n	8002746 <uart_rx+0x102>
			} else {
				param_req[i] = rxtemp;
 800273c:	7afb      	ldrb	r3, [r7, #11]
 800273e:	687a      	ldr	r2, [r7, #4]
 8002740:	491b      	ldr	r1, [pc, #108]	@ (80027b0 <uart_rx+0x16c>)
 8002742:	f841 2023 	str.w	r2, [r1, r3, lsl #2]
		for (uint8_t i = 0; i < PARAMS; i++) {	// Converts each sequence of 3 bytes into a 24 bit value
 8002746:	7afb      	ldrb	r3, [r7, #11]
 8002748:	3301      	adds	r3, #1
 800274a:	72fb      	strb	r3, [r7, #11]
 800274c:	7afb      	ldrb	r3, [r7, #11]
 800274e:	2b02      	cmp	r3, #2
 8002750:	d9b4      	bls.n	80026bc <uart_rx+0x78>
 8002752:	e023      	b.n	800279c <uart_rx+0x158>
			}
		}
	} else {									// Wrong CRC
		rx_status = false;
 8002754:	2300      	movs	r3, #0
 8002756:	73bb      	strb	r3, [r7, #14]
		LL_USART_DisableDirectionRx(USART1);
 8002758:	4817      	ldr	r0, [pc, #92]	@ (80027b8 <uart_rx+0x174>)
 800275a:	f7ff fcd8 	bl	800210e <LL_USART_DisableDirectionRx>
					LL_mDelay(sync_del);		// Delay to try new sync at a different time
 800275e:	4b17      	ldr	r3, [pc, #92]	@ (80027bc <uart_rx+0x178>)
 8002760:	781b      	ldrb	r3, [r3, #0]
 8002762:	4618      	mov	r0, r3
 8002764:	f001 f838 	bl	80037d8 <LL_mDelay>
					sync_del++;
 8002768:	4b14      	ldr	r3, [pc, #80]	@ (80027bc <uart_rx+0x178>)
 800276a:	781b      	ldrb	r3, [r3, #0]
 800276c:	3301      	adds	r3, #1
 800276e:	b2da      	uxtb	r2, r3
 8002770:	4b12      	ldr	r3, [pc, #72]	@ (80027bc <uart_rx+0x178>)
 8002772:	701a      	strb	r2, [r3, #0]
		crc = LL_USART_ReceiveData8(USART1);
 8002774:	4810      	ldr	r0, [pc, #64]	@ (80027b8 <uart_rx+0x174>)
 8002776:	f7ff fd8e 	bl	8002296 <LL_USART_ReceiveData8>
 800277a:	4603      	mov	r3, r0
 800277c:	73fb      	strb	r3, [r7, #15]
		LL_USART_ClearFlag_ORE(USART1);
 800277e:	480e      	ldr	r0, [pc, #56]	@ (80027b8 <uart_rx+0x174>)
 8002780:	f7ff fd20 	bl	80021c4 <LL_USART_ClearFlag_ORE>
		LL_USART_ClearFlag_NE(USART1);
 8002784:	480c      	ldr	r0, [pc, #48]	@ (80027b8 <uart_rx+0x174>)
 8002786:	f7ff fd10 	bl	80021aa <LL_USART_ClearFlag_NE>
		LL_USART_ClearFlag_FE(USART1);
 800278a:	480b      	ldr	r0, [pc, #44]	@ (80027b8 <uart_rx+0x174>)
 800278c:	f7ff fd00 	bl	8002190 <LL_USART_ClearFlag_FE>
		LL_USART_ClearFlag_PE(USART1);
 8002790:	4809      	ldr	r0, [pc, #36]	@ (80027b8 <uart_rx+0x174>)
 8002792:	f7ff fcf0 	bl	8002176 <LL_USART_ClearFlag_PE>
		LL_USART_EnableDirectionRx(USART1);
 8002796:	4808      	ldr	r0, [pc, #32]	@ (80027b8 <uart_rx+0x174>)
 8002798:	f7ff fc98 	bl	80020cc <LL_USART_EnableDirectionRx>
/*		LL_USART_Disable(USART1);				// RESET UART (might be required to resume normal operation)
	    LL_USART_Enable(USART1);
*/
	}
	return (rx_status);
 800279c:	7bbb      	ldrb	r3, [r7, #14]
}
 800279e:	4618      	mov	r0, r3
 80027a0:	3710      	adds	r7, #16
 80027a2:	46bd      	mov	sp, r7
 80027a4:	bd80      	pop	{r7, pc}
 80027a6:	bf00      	nop
 80027a8:	20000050 	.word	0x20000050
 80027ac:	080038d0 	.word	0x080038d0
 80027b0:	20000000 	.word	0x20000000
 80027b4:	080038c8 	.word	0x080038c8
 80027b8:	40013800 	.word	0x40013800
 80027bc:	2000005b 	.word	0x2000005b

080027c0 <uart_tx>:


void uart_tx (void) {
 80027c0:	b580      	push	{r7, lr}
 80027c2:	b082      	sub	sp, #8
 80027c4:	af00      	add	r7, sp, #0
	static uint8_t uart_tx_buf[10];
	uint8_t crc = 0;
 80027c6:	2300      	movs	r3, #0
 80027c8:	71fb      	strb	r3, [r7, #7]
		if ((meas[0]+= 1) > 1200) meas[0]=0;
 80027ca:	4b41      	ldr	r3, [pc, #260]	@ (80028d0 <uart_tx+0x110>)
 80027cc:	681b      	ldr	r3, [r3, #0]
 80027ce:	3301      	adds	r3, #1
 80027d0:	4a3f      	ldr	r2, [pc, #252]	@ (80028d0 <uart_tx+0x110>)
 80027d2:	6013      	str	r3, [r2, #0]
 80027d4:	4b3e      	ldr	r3, [pc, #248]	@ (80028d0 <uart_tx+0x110>)
 80027d6:	681b      	ldr	r3, [r3, #0]
 80027d8:	f5b3 6f96 	cmp.w	r3, #1200	@ 0x4b0
 80027dc:	dd02      	ble.n	80027e4 <uart_tx+0x24>
 80027de:	4b3c      	ldr	r3, [pc, #240]	@ (80028d0 <uart_tx+0x110>)
 80027e0:	2200      	movs	r2, #0
 80027e2:	601a      	str	r2, [r3, #0]
		if ((meas[1]+= 1) > 1200) meas[1]=0;
 80027e4:	4b3a      	ldr	r3, [pc, #232]	@ (80028d0 <uart_tx+0x110>)
 80027e6:	685b      	ldr	r3, [r3, #4]
 80027e8:	3301      	adds	r3, #1
 80027ea:	4a39      	ldr	r2, [pc, #228]	@ (80028d0 <uart_tx+0x110>)
 80027ec:	6053      	str	r3, [r2, #4]
 80027ee:	4b38      	ldr	r3, [pc, #224]	@ (80028d0 <uart_tx+0x110>)
 80027f0:	685b      	ldr	r3, [r3, #4]
 80027f2:	f5b3 6f96 	cmp.w	r3, #1200	@ 0x4b0
 80027f6:	dd02      	ble.n	80027fe <uart_tx+0x3e>
 80027f8:	4b35      	ldr	r3, [pc, #212]	@ (80028d0 <uart_tx+0x110>)
 80027fa:	2200      	movs	r2, #0
 80027fc:	605a      	str	r2, [r3, #4]
		if ((meas[2]+= 1) > 1200) meas[2]=0;
 80027fe:	4b34      	ldr	r3, [pc, #208]	@ (80028d0 <uart_tx+0x110>)
 8002800:	689b      	ldr	r3, [r3, #8]
 8002802:	3301      	adds	r3, #1
 8002804:	4a32      	ldr	r2, [pc, #200]	@ (80028d0 <uart_tx+0x110>)
 8002806:	6093      	str	r3, [r2, #8]
 8002808:	4b31      	ldr	r3, [pc, #196]	@ (80028d0 <uart_tx+0x110>)
 800280a:	689b      	ldr	r3, [r3, #8]
 800280c:	f5b3 6f96 	cmp.w	r3, #1200	@ 0x4b0
 8002810:	dd02      	ble.n	8002818 <uart_tx+0x58>
 8002812:	4b2f      	ldr	r3, [pc, #188]	@ (80028d0 <uart_tx+0x110>)
 8002814:	2200      	movs	r2, #0
 8002816:	609a      	str	r2, [r3, #8]

	for(uint8_t i = 0; i < 9; i++) {
 8002818:	2300      	movs	r3, #0
 800281a:	71bb      	strb	r3, [r7, #6]
 800281c:	e03d      	b.n	800289a <uart_tx+0xda>
		uart_tx_buf[i] = GET_BYTE(meas[i / 3], i % 3);
 800281e:	79bb      	ldrb	r3, [r7, #6]
 8002820:	4a2c      	ldr	r2, [pc, #176]	@ (80028d4 <uart_tx+0x114>)
 8002822:	fba2 2303 	umull	r2, r3, r2, r3
 8002826:	085b      	lsrs	r3, r3, #1
 8002828:	b2db      	uxtb	r3, r3
 800282a:	461a      	mov	r2, r3
 800282c:	4b28      	ldr	r3, [pc, #160]	@ (80028d0 <uart_tx+0x110>)
 800282e:	f853 0022 	ldr.w	r0, [r3, r2, lsl #2]
 8002832:	79ba      	ldrb	r2, [r7, #6]
 8002834:	4b27      	ldr	r3, [pc, #156]	@ (80028d4 <uart_tx+0x114>)
 8002836:	fba3 1302 	umull	r1, r3, r3, r2
 800283a:	0859      	lsrs	r1, r3, #1
 800283c:	460b      	mov	r3, r1
 800283e:	005b      	lsls	r3, r3, #1
 8002840:	440b      	add	r3, r1
 8002842:	1ad3      	subs	r3, r2, r3
 8002844:	b2db      	uxtb	r3, r3
 8002846:	00db      	lsls	r3, r3, #3
 8002848:	fa40 f203 	asr.w	r2, r0, r3
 800284c:	79bb      	ldrb	r3, [r7, #6]
 800284e:	b2d1      	uxtb	r1, r2
 8002850:	4a21      	ldr	r2, [pc, #132]	@ (80028d8 <uart_tx+0x118>)
 8002852:	54d1      	strb	r1, [r2, r3]
		crc ^= uart_tx_buf[i];
 8002854:	79bb      	ldrb	r3, [r7, #6]
 8002856:	4a20      	ldr	r2, [pc, #128]	@ (80028d8 <uart_tx+0x118>)
 8002858:	5cd2      	ldrb	r2, [r2, r3]
 800285a:	79fb      	ldrb	r3, [r7, #7]
 800285c:	4053      	eors	r3, r2
 800285e:	71fb      	strb	r3, [r7, #7]
		for(uint8_t j = 0; j < 8; j++) {
 8002860:	2300      	movs	r3, #0
 8002862:	717b      	strb	r3, [r7, #5]
 8002864:	e013      	b.n	800288e <uart_tx+0xce>
			crc = (crc & 0x80) ? (crc << 1) ^ 0x07 : (crc << 1);
 8002866:	f997 3007 	ldrsb.w	r3, [r7, #7]
 800286a:	2b00      	cmp	r3, #0
 800286c:	da08      	bge.n	8002880 <uart_tx+0xc0>
 800286e:	f997 3007 	ldrsb.w	r3, [r7, #7]
 8002872:	005b      	lsls	r3, r3, #1
 8002874:	b25b      	sxtb	r3, r3
 8002876:	f083 0307 	eor.w	r3, r3, #7
 800287a:	b25b      	sxtb	r3, r3
 800287c:	b2db      	uxtb	r3, r3
 800287e:	e002      	b.n	8002886 <uart_tx+0xc6>
 8002880:	79fb      	ldrb	r3, [r7, #7]
 8002882:	005b      	lsls	r3, r3, #1
 8002884:	b2db      	uxtb	r3, r3
 8002886:	71fb      	strb	r3, [r7, #7]
		for(uint8_t j = 0; j < 8; j++) {
 8002888:	797b      	ldrb	r3, [r7, #5]
 800288a:	3301      	adds	r3, #1
 800288c:	717b      	strb	r3, [r7, #5]
 800288e:	797b      	ldrb	r3, [r7, #5]
 8002890:	2b07      	cmp	r3, #7
 8002892:	d9e8      	bls.n	8002866 <uart_tx+0xa6>
	for(uint8_t i = 0; i < 9; i++) {
 8002894:	79bb      	ldrb	r3, [r7, #6]
 8002896:	3301      	adds	r3, #1
 8002898:	71bb      	strb	r3, [r7, #6]
 800289a:	79bb      	ldrb	r3, [r7, #6]
 800289c:	2b08      	cmp	r3, #8
 800289e:	d9be      	bls.n	800281e <uart_tx+0x5e>
		}
	}
	uart_tx_buf[9] = crc;
 80028a0:	4a0d      	ldr	r2, [pc, #52]	@ (80028d8 <uart_tx+0x118>)
 80028a2:	79fb      	ldrb	r3, [r7, #7]
 80028a4:	7253      	strb	r3, [r2, #9]

	if (!LL_DMA_IsEnabledChannel(DMA1, LL_DMA_CHANNEL_3)) {
 80028a6:	2102      	movs	r1, #2
 80028a8:	480c      	ldr	r0, [pc, #48]	@ (80028dc <uart_tx+0x11c>)
 80028aa:	f7ff fa8f 	bl	8001dcc <LL_DMA_IsEnabledChannel>
 80028ae:	4603      	mov	r3, r0
 80028b0:	2b00      	cmp	r3, #0
 80028b2:	d109      	bne.n	80028c8 <uart_tx+0x108>
		if (LL_USART_IsActiveFlag_TC(USART1)) {         // DMA channel not active// UART transmission complete
 80028b4:	480a      	ldr	r0, [pc, #40]	@ (80028e0 <uart_tx+0x120>)
 80028b6:	f7ff fc4b 	bl	8002150 <LL_USART_IsActiveFlag_TC>
 80028ba:	4603      	mov	r3, r0
 80028bc:	2b00      	cmp	r3, #0
 80028be:	d003      	beq.n	80028c8 <uart_tx+0x108>
			UART1_Transmit_DMA(uart_tx_buf,10);
 80028c0:	210a      	movs	r1, #10
 80028c2:	4805      	ldr	r0, [pc, #20]	@ (80028d8 <uart_tx+0x118>)
 80028c4:	f7ff fdb6 	bl	8002434 <UART1_Transmit_DMA>
		}
	}
}
 80028c8:	bf00      	nop
 80028ca:	3708      	adds	r7, #8
 80028cc:	46bd      	mov	sp, r7
 80028ce:	bd80      	pop	{r7, pc}
 80028d0:	2000000c 	.word	0x2000000c
 80028d4:	aaaaaaab 	.word	0xaaaaaaab
 80028d8:	2000005c 	.word	0x2000005c
 80028dc:	40020000 	.word	0x40020000
 80028e0:	40013800 	.word	0x40013800

080028e4 <strobe_main>:
//	meas[1] = adc1_bkp[1];
//	meas[2] = adc1_bkp[2];
}

*/
void strobe_main() {
 80028e4:	b580      	push	{r7, lr}
 80028e6:	b082      	sub	sp, #8
 80028e8:	af00      	add	r7, sp, #0
	uint32_t LED_tog_t = 0, uart_tr_t = 0;
 80028ea:	2300      	movs	r3, #0
 80028ec:	607b      	str	r3, [r7, #4]
 80028ee:	2300      	movs	r3, #0
 80028f0:	603b      	str	r3, [r7, #0]
	LED_OFF;
 80028f2:	f44f 7180 	mov.w	r1, #256	@ 0x100
 80028f6:	f04f 4090 	mov.w	r0, #1207959552	@ 0x48000000
 80028fa:	f7ff f98f 	bl	8001c1c <LL_GPIO_SetOutputPin>
	strobe_config();
 80028fe:	f7ff fe25 	bl	800254c <strobe_config>


	while (1) {
		if (miliseconds > LED_tog_t) {			// Blinks alive LED at 1 Hz 50 %
 8002902:	4b15      	ldr	r3, [pc, #84]	@ (8002958 <strobe_main+0x74>)
 8002904:	681b      	ldr	r3, [r3, #0]
 8002906:	687a      	ldr	r2, [r7, #4]
 8002908:	429a      	cmp	r2, r3
 800290a:	d20a      	bcs.n	8002922 <strobe_main+0x3e>
			LED_tog_t = miliseconds + LED_TOGGLE_PER;
 800290c:	4b12      	ldr	r3, [pc, #72]	@ (8002958 <strobe_main+0x74>)
 800290e:	681b      	ldr	r3, [r3, #0]
 8002910:	f503 73fa 	add.w	r3, r3, #500	@ 0x1f4
 8002914:	607b      	str	r3, [r7, #4]
			LED_TOG;
 8002916:	f44f 7180 	mov.w	r1, #256	@ 0x100
 800291a:	f04f 4090 	mov.w	r0, #1207959552	@ 0x48000000
 800291e:	f7ff f999 	bl	8001c54 <LL_GPIO_TogglePin>
		}

		if (new_rx) {							// RX flag active
 8002922:	4b0e      	ldr	r3, [pc, #56]	@ (800295c <strobe_main+0x78>)
 8002924:	781b      	ldrb	r3, [r3, #0]
 8002926:	b2db      	uxtb	r3, r3
 8002928:	2b00      	cmp	r3, #0
 800292a:	d009      	beq.n	8002940 <strobe_main+0x5c>
			new_rx = false;
 800292c:	4b0b      	ldr	r3, [pc, #44]	@ (800295c <strobe_main+0x78>)
 800292e:	2200      	movs	r2, #0
 8002930:	701a      	strb	r2, [r3, #0]
			if(uart_rx() == true) {				// If received data successfully
 8002932:	f7ff fe87 	bl	8002644 <uart_rx>
 8002936:	4603      	mov	r3, r0
 8002938:	2b00      	cmp	r3, #0
 800293a:	d001      	beq.n	8002940 <strobe_main+0x5c>
				// Updates timer and voltage control
				calc_freq_per();
 800293c:	f7ff fd9c 	bl	8002478 <calc_freq_per>
				// calc_pwm_voltage();
			}
		}

		if (miliseconds > uart_tr_t) {			// Time for new transmission
 8002940:	4b05      	ldr	r3, [pc, #20]	@ (8002958 <strobe_main+0x74>)
 8002942:	681b      	ldr	r3, [r3, #0]
 8002944:	683a      	ldr	r2, [r7, #0]
 8002946:	429a      	cmp	r2, r3
 8002948:	d2db      	bcs.n	8002902 <strobe_main+0x1e>
			uart_tr_t = miliseconds + UART_TX_PER;
 800294a:	4b03      	ldr	r3, [pc, #12]	@ (8002958 <strobe_main+0x74>)
 800294c:	681b      	ldr	r3, [r3, #0]
 800294e:	33c8      	adds	r3, #200	@ 0xc8
 8002950:	603b      	str	r3, [r7, #0]
			uart_tx();
 8002952:	f7ff ff35 	bl	80027c0 <uart_tx>
		if (miliseconds > LED_tog_t) {			// Blinks alive LED at 1 Hz 50 %
 8002956:	e7d4      	b.n	8002902 <strobe_main+0x1e>
 8002958:	20000048 	.word	0x20000048
 800295c:	2000004c 	.word	0x2000004c

08002960 <SystemInit>:
  * @param  None
  * @retval None
  */

void SystemInit(void)
{
 8002960:	b480      	push	{r7}
 8002962:	af00      	add	r7, sp, #0
  /* FPU settings ------------------------------------------------------------*/
  #if (__FPU_PRESENT == 1) && (__FPU_USED == 1)
    SCB->CPACR |= ((3UL << (10*2))|(3UL << (11*2)));  /* set CP10 and CP11 Full Access */
 8002964:	4b06      	ldr	r3, [pc, #24]	@ (8002980 <SystemInit+0x20>)
 8002966:	f8d3 3088 	ldr.w	r3, [r3, #136]	@ 0x88
 800296a:	4a05      	ldr	r2, [pc, #20]	@ (8002980 <SystemInit+0x20>)
 800296c:	f443 0370 	orr.w	r3, r3, #15728640	@ 0xf00000
 8002970:	f8c2 3088 	str.w	r3, [r2, #136]	@ 0x88

  /* Configure the Vector Table location add offset address ------------------*/
#if defined(USER_VECT_TAB_ADDRESS)
  SCB->VTOR = VECT_TAB_BASE_ADDRESS | VECT_TAB_OFFSET; /* Vector Table Relocation in Internal SRAM */
#endif /* USER_VECT_TAB_ADDRESS */
}
 8002974:	bf00      	nop
 8002976:	46bd      	mov	sp, r7
 8002978:	f85d 7b04 	ldr.w	r7, [sp], #4
 800297c:	4770      	bx	lr
 800297e:	bf00      	nop
 8002980:	e000ed00 	.word	0xe000ed00

08002984 <Reset_Handler>:

    .section	.text.Reset_Handler
	.weak	Reset_Handler
	.type	Reset_Handler, %function
Reset_Handler:
  ldr   r0, =_estack
 8002984:	480d      	ldr	r0, [pc, #52]	@ (80029bc <LoopForever+0x2>)
  mov   sp, r0          /* set stack pointer */
 8002986:	4685      	mov	sp, r0
  
/* Call the clock system initialization function.*/
    bl  SystemInit
 8002988:	f7ff ffea 	bl	8002960 <SystemInit>

/* Copy the data segment initializers from flash to SRAM */
  ldr r0, =_sdata
 800298c:	480c      	ldr	r0, [pc, #48]	@ (80029c0 <LoopForever+0x6>)
  ldr r1, =_edata
 800298e:	490d      	ldr	r1, [pc, #52]	@ (80029c4 <LoopForever+0xa>)
  ldr r2, =_sidata
 8002990:	4a0d      	ldr	r2, [pc, #52]	@ (80029c8 <LoopForever+0xe>)
  movs r3, #0
 8002992:	2300      	movs	r3, #0
  b	LoopCopyDataInit
 8002994:	e002      	b.n	800299c <LoopCopyDataInit>

08002996 <CopyDataInit>:

CopyDataInit:
  ldr r4, [r2, r3]
 8002996:	58d4      	ldr	r4, [r2, r3]
  str r4, [r0, r3]
 8002998:	50c4      	str	r4, [r0, r3]
  adds r3, r3, #4
 800299a:	3304      	adds	r3, #4

0800299c <LoopCopyDataInit>:

LoopCopyDataInit:
  adds r4, r0, r3
 800299c:	18c4      	adds	r4, r0, r3
  cmp r4, r1
 800299e:	428c      	cmp	r4, r1
  bcc CopyDataInit
 80029a0:	d3f9      	bcc.n	8002996 <CopyDataInit>
  
/* Zero fill the bss segment. */
  ldr r2, =_sbss
 80029a2:	4a0a      	ldr	r2, [pc, #40]	@ (80029cc <LoopForever+0x12>)
  ldr r4, =_ebss
 80029a4:	4c0a      	ldr	r4, [pc, #40]	@ (80029d0 <LoopForever+0x16>)
  movs r3, #0
 80029a6:	2300      	movs	r3, #0
  b LoopFillZerobss
 80029a8:	e001      	b.n	80029ae <LoopFillZerobss>

080029aa <FillZerobss>:

FillZerobss:
  str  r3, [r2]
 80029aa:	6013      	str	r3, [r2, #0]
  adds r2, r2, #4
 80029ac:	3204      	adds	r2, #4

080029ae <LoopFillZerobss>:

LoopFillZerobss:
  cmp r2, r4
 80029ae:	42a2      	cmp	r2, r4
  bcc FillZerobss
 80029b0:	d3fb      	bcc.n	80029aa <FillZerobss>
/* Call static constructors */
    bl __libc_init_array
 80029b2:	f000 ff51 	bl	8003858 <__libc_init_array>
/* Call the application's entry point.*/
	bl	main
 80029b6:	f7fe fbab 	bl	8001110 <main>

080029ba <LoopForever>:

LoopForever:
    b LoopForever
 80029ba:	e7fe      	b.n	80029ba <LoopForever>
  ldr   r0, =_estack
 80029bc:	20008000 	.word	0x20008000
  ldr r0, =_sdata
 80029c0:	20000000 	.word	0x20000000
  ldr r1, =_edata
 80029c4:	2000002c 	.word	0x2000002c
  ldr r2, =_sidata
 80029c8:	08003934 	.word	0x08003934
  ldr r2, =_sbss
 80029cc:	2000002c 	.word	0x2000002c
  ldr r4, =_ebss
 80029d0:	20000068 	.word	0x20000068

080029d4 <ADC1_2_IRQHandler>:
 * @retval : None
*/
    .section	.text.Default_Handler,"ax",%progbits
Default_Handler:
Infinite_Loop:
	b	Infinite_Loop
 80029d4:	e7fe      	b.n	80029d4 <ADC1_2_IRQHandler>

080029d6 <LL_ADC_REG_SetSequencerLength>:
{
 80029d6:	b480      	push	{r7}
 80029d8:	b083      	sub	sp, #12
 80029da:	af00      	add	r7, sp, #0
 80029dc:	6078      	str	r0, [r7, #4]
 80029de:	6039      	str	r1, [r7, #0]
  MODIFY_REG(ADCx->SQR1, ADC_SQR1_L, SequencerNbRanks);
 80029e0:	687b      	ldr	r3, [r7, #4]
 80029e2:	6b1b      	ldr	r3, [r3, #48]	@ 0x30
 80029e4:	f023 020f 	bic.w	r2, r3, #15
 80029e8:	683b      	ldr	r3, [r7, #0]
 80029ea:	431a      	orrs	r2, r3
 80029ec:	687b      	ldr	r3, [r7, #4]
 80029ee:	631a      	str	r2, [r3, #48]	@ 0x30
}
 80029f0:	bf00      	nop
 80029f2:	370c      	adds	r7, #12
 80029f4:	46bd      	mov	sp, r7
 80029f6:	f85d 7b04 	ldr.w	r7, [sp], #4
 80029fa:	4770      	bx	lr

080029fc <LL_ADC_IsEnabled>:
  * @rmtoll CR       ADEN           LL_ADC_IsEnabled
  * @param  ADCx ADC instance
  * @retval 0: ADC is disabled, 1: ADC is enabled.
  */
__STATIC_INLINE uint32_t LL_ADC_IsEnabled(const ADC_TypeDef *ADCx)
{
 80029fc:	b480      	push	{r7}
 80029fe:	b083      	sub	sp, #12
 8002a00:	af00      	add	r7, sp, #0
 8002a02:	6078      	str	r0, [r7, #4]
  return ((READ_BIT(ADCx->CR, ADC_CR_ADEN) == (ADC_CR_ADEN)) ? 1UL : 0UL);
 8002a04:	687b      	ldr	r3, [r7, #4]
 8002a06:	689b      	ldr	r3, [r3, #8]
 8002a08:	f003 0301 	and.w	r3, r3, #1
 8002a0c:	2b01      	cmp	r3, #1
 8002a0e:	d101      	bne.n	8002a14 <LL_ADC_IsEnabled+0x18>
 8002a10:	2301      	movs	r3, #1
 8002a12:	e000      	b.n	8002a16 <LL_ADC_IsEnabled+0x1a>
 8002a14:	2300      	movs	r3, #0
}
 8002a16:	4618      	mov	r0, r3
 8002a18:	370c      	adds	r7, #12
 8002a1a:	46bd      	mov	sp, r7
 8002a1c:	f85d 7b04 	ldr.w	r7, [sp], #4
 8002a20:	4770      	bx	lr
	...

08002a24 <LL_ADC_CommonInit>:
  * @retval An ErrorStatus enumeration value:
  *          - SUCCESS: ADC common registers are initialized
  *          - ERROR: ADC common registers are not initialized
  */
ErrorStatus LL_ADC_CommonInit(ADC_Common_TypeDef *ADCxy_COMMON, const LL_ADC_CommonInitTypeDef *pADC_CommonInitStruct)
{
 8002a24:	b590      	push	{r4, r7, lr}
 8002a26:	b085      	sub	sp, #20
 8002a28:	af00      	add	r7, sp, #0
 8002a2a:	6078      	str	r0, [r7, #4]
 8002a2c:	6039      	str	r1, [r7, #0]
  ErrorStatus status = SUCCESS;
 8002a2e:	2300      	movs	r3, #0
 8002a30:	73fb      	strb	r3, [r7, #15]
  /* Note: Hardware constraint (refer to description of functions             */
  /*       "LL_ADC_SetCommonXXX()" and "LL_ADC_SetMultiXXX()"):               */
  /*       On this STM32 series, setting of these features is conditioned to  */
  /*       ADC state:                                                         */
  /*       All ADC instances of the ADC common group must be disabled.        */
  if (__LL_ADC_IS_ENABLED_ALL_COMMON_INSTANCE(ADCxy_COMMON) == 0UL)
 8002a32:	f04f 40a0 	mov.w	r0, #1342177280	@ 0x50000000
 8002a36:	f7ff ffe1 	bl	80029fc <LL_ADC_IsEnabled>
 8002a3a:	4604      	mov	r4, r0
 8002a3c:	4817      	ldr	r0, [pc, #92]	@ (8002a9c <LL_ADC_CommonInit+0x78>)
 8002a3e:	f7ff ffdd 	bl	80029fc <LL_ADC_IsEnabled>
 8002a42:	4603      	mov	r3, r0
 8002a44:	4323      	orrs	r3, r4
 8002a46:	2b00      	cmp	r3, #0
 8002a48:	d120      	bne.n	8002a8c <LL_ADC_CommonInit+0x68>
    /*    selected device)                                                    */
    /*    - Set ADC multimode configuration                                   */
    /*    - Set ADC multimode DMA transfer                                    */
    /*    - Set ADC multimode: delay between 2 sampling phases                */
#if defined(ADC_MULTIMODE_SUPPORT)
    if (pADC_CommonInitStruct->Multimode != LL_ADC_MULTI_INDEPENDENT)
 8002a4a:	683b      	ldr	r3, [r7, #0]
 8002a4c:	685b      	ldr	r3, [r3, #4]
 8002a4e:	2b00      	cmp	r3, #0
 8002a50:	d012      	beq.n	8002a78 <LL_ADC_CommonInit+0x54>
    {
      MODIFY_REG(ADCxy_COMMON->CCR,
 8002a52:	687b      	ldr	r3, [r7, #4]
 8002a54:	689a      	ldr	r2, [r3, #8]
 8002a56:	4b12      	ldr	r3, [pc, #72]	@ (8002aa0 <LL_ADC_CommonInit+0x7c>)
 8002a58:	4013      	ands	r3, r2
 8002a5a:	683a      	ldr	r2, [r7, #0]
 8002a5c:	6811      	ldr	r1, [r2, #0]
 8002a5e:	683a      	ldr	r2, [r7, #0]
 8002a60:	6852      	ldr	r2, [r2, #4]
 8002a62:	4311      	orrs	r1, r2
 8002a64:	683a      	ldr	r2, [r7, #0]
 8002a66:	6892      	ldr	r2, [r2, #8]
 8002a68:	4311      	orrs	r1, r2
 8002a6a:	683a      	ldr	r2, [r7, #0]
 8002a6c:	68d2      	ldr	r2, [r2, #12]
 8002a6e:	430a      	orrs	r2, r1
 8002a70:	431a      	orrs	r2, r3
 8002a72:	687b      	ldr	r3, [r7, #4]
 8002a74:	609a      	str	r2, [r3, #8]
 8002a76:	e00b      	b.n	8002a90 <LL_ADC_CommonInit+0x6c>
                 | pADC_CommonInitStruct->MultiTwoSamplingDelay
                );
    }
    else
    {
      MODIFY_REG(ADCxy_COMMON->CCR,
 8002a78:	687b      	ldr	r3, [r7, #4]
 8002a7a:	689a      	ldr	r2, [r3, #8]
 8002a7c:	4b08      	ldr	r3, [pc, #32]	@ (8002aa0 <LL_ADC_CommonInit+0x7c>)
 8002a7e:	4013      	ands	r3, r2
 8002a80:	683a      	ldr	r2, [r7, #0]
 8002a82:	6812      	ldr	r2, [r2, #0]
 8002a84:	431a      	orrs	r2, r3
 8002a86:	687b      	ldr	r3, [r7, #4]
 8002a88:	609a      	str	r2, [r3, #8]
 8002a8a:	e001      	b.n	8002a90 <LL_ADC_CommonInit+0x6c>
  }
  else
  {
    /* Initialization error: One or several ADC instances belonging to        */
    /* the same ADC common instance are not disabled.                         */
    status = ERROR;
 8002a8c:	2301      	movs	r3, #1
 8002a8e:	73fb      	strb	r3, [r7, #15]
  }

  return status;
 8002a90:	7bfb      	ldrb	r3, [r7, #15]
}
 8002a92:	4618      	mov	r0, r3
 8002a94:	3714      	adds	r7, #20
 8002a96:	46bd      	mov	sp, r7
 8002a98:	bd90      	pop	{r4, r7, pc}
 8002a9a:	bf00      	nop
 8002a9c:	50000100 	.word	0x50000100
 8002aa0:	ffc030e0 	.word	0xffc030e0

08002aa4 <LL_ADC_Init>:
  * @retval An ErrorStatus enumeration value:
  *          - SUCCESS: ADC registers are initialized
  *          - ERROR: ADC registers are not initialized
  */
ErrorStatus LL_ADC_Init(ADC_TypeDef *ADCx, const LL_ADC_InitTypeDef *pADC_InitStruct)
{
 8002aa4:	b580      	push	{r7, lr}
 8002aa6:	b084      	sub	sp, #16
 8002aa8:	af00      	add	r7, sp, #0
 8002aaa:	6078      	str	r0, [r7, #4]
 8002aac:	6039      	str	r1, [r7, #0]
  ErrorStatus status = SUCCESS;
 8002aae:	2300      	movs	r3, #0
 8002ab0:	73fb      	strb	r3, [r7, #15]
  assert_param(IS_LL_ADC_DATA_ALIGN(pADC_InitStruct->DataAlignment));
  assert_param(IS_LL_ADC_LOW_POWER(pADC_InitStruct->LowPowerMode));

  /* Note: Hardware constraint (refer to description of this function):       */
  /*       ADC instance must be disabled.                                     */
  if (LL_ADC_IsEnabled(ADCx) == 0UL)
 8002ab2:	6878      	ldr	r0, [r7, #4]
 8002ab4:	f7ff ffa2 	bl	80029fc <LL_ADC_IsEnabled>
 8002ab8:	4603      	mov	r3, r0
 8002aba:	2b00      	cmp	r3, #0
 8002abc:	d111      	bne.n	8002ae2 <LL_ADC_Init+0x3e>
    /* Configuration of ADC hierarchical scope:                               */
    /*  - ADC instance                                                        */
    /*    - Set ADC data resolution                                           */
    /*    - Set ADC conversion data alignment                                 */
    /*    - Set ADC low power mode                                            */
    MODIFY_REG(ADCx->CFGR,
 8002abe:	687b      	ldr	r3, [r7, #4]
 8002ac0:	68db      	ldr	r3, [r3, #12]
 8002ac2:	f423 4340 	bic.w	r3, r3, #49152	@ 0xc000
 8002ac6:	f023 0318 	bic.w	r3, r3, #24
 8002aca:	683a      	ldr	r2, [r7, #0]
 8002acc:	6811      	ldr	r1, [r2, #0]
 8002ace:	683a      	ldr	r2, [r7, #0]
 8002ad0:	6852      	ldr	r2, [r2, #4]
 8002ad2:	4311      	orrs	r1, r2
 8002ad4:	683a      	ldr	r2, [r7, #0]
 8002ad6:	6892      	ldr	r2, [r2, #8]
 8002ad8:	430a      	orrs	r2, r1
 8002ada:	431a      	orrs	r2, r3
 8002adc:	687b      	ldr	r3, [r7, #4]
 8002ade:	60da      	str	r2, [r3, #12]
 8002ae0:	e001      	b.n	8002ae6 <LL_ADC_Init+0x42>

  }
  else
  {
    /* Initialization error: ADC instance is not disabled. */
    status = ERROR;
 8002ae2:	2301      	movs	r3, #1
 8002ae4:	73fb      	strb	r3, [r7, #15]
  }

  return status;
 8002ae6:	7bfb      	ldrb	r3, [r7, #15]
}
 8002ae8:	4618      	mov	r0, r3
 8002aea:	3710      	adds	r7, #16
 8002aec:	46bd      	mov	sp, r7
 8002aee:	bd80      	pop	{r7, pc}

08002af0 <LL_ADC_REG_Init>:
  * @retval An ErrorStatus enumeration value:
  *          - SUCCESS: ADC registers are initialized
  *          - ERROR: ADC registers are not initialized
  */
ErrorStatus LL_ADC_REG_Init(ADC_TypeDef *ADCx, const LL_ADC_REG_InitTypeDef *pADC_RegInitStruct)
{
 8002af0:	b580      	push	{r7, lr}
 8002af2:	b084      	sub	sp, #16
 8002af4:	af00      	add	r7, sp, #0
 8002af6:	6078      	str	r0, [r7, #4]
 8002af8:	6039      	str	r1, [r7, #0]
  ErrorStatus status = SUCCESS;
 8002afa:	2300      	movs	r3, #0
 8002afc:	73fb      	strb	r3, [r7, #15]
  assert_param(IS_LL_ADC_REG_DMA_TRANSFER(pADC_RegInitStruct->DMATransfer));
  assert_param(IS_LL_ADC_REG_OVR_DATA_BEHAVIOR(pADC_RegInitStruct->Overrun));

  /* Note: Hardware constraint (refer to description of this function):       */
  /*       ADC instance must be disabled.                                     */
  if (LL_ADC_IsEnabled(ADCx) == 0UL)
 8002afe:	6878      	ldr	r0, [r7, #4]
 8002b00:	f7ff ff7c 	bl	80029fc <LL_ADC_IsEnabled>
 8002b04:	4603      	mov	r3, r0
 8002b06:	2b00      	cmp	r3, #0
 8002b08:	d132      	bne.n	8002b70 <LL_ADC_REG_Init+0x80>
    /*    - Set ADC group regular conversion data transfer: no transfer or    */
    /*      transfer by DMA, and DMA requests mode                            */
    /*    - Set ADC group regular overrun behavior                            */
    /* Note: On this STM32 series, ADC trigger edge is set to value 0x0 by    */
    /*       setting of trigger source to SW start.                           */
    if (pADC_RegInitStruct->SequencerLength != LL_ADC_REG_SEQ_SCAN_DISABLE)
 8002b0a:	683b      	ldr	r3, [r7, #0]
 8002b0c:	685b      	ldr	r3, [r3, #4]
 8002b0e:	2b00      	cmp	r3, #0
 8002b10:	d015      	beq.n	8002b3e <LL_ADC_REG_Init+0x4e>
    {
      MODIFY_REG(ADCx->CFGR,
 8002b12:	687b      	ldr	r3, [r7, #4]
 8002b14:	68da      	ldr	r2, [r3, #12]
 8002b16:	4b1a      	ldr	r3, [pc, #104]	@ (8002b80 <LL_ADC_REG_Init+0x90>)
 8002b18:	4013      	ands	r3, r2
 8002b1a:	683a      	ldr	r2, [r7, #0]
 8002b1c:	6811      	ldr	r1, [r2, #0]
 8002b1e:	683a      	ldr	r2, [r7, #0]
 8002b20:	6892      	ldr	r2, [r2, #8]
 8002b22:	4311      	orrs	r1, r2
 8002b24:	683a      	ldr	r2, [r7, #0]
 8002b26:	68d2      	ldr	r2, [r2, #12]
 8002b28:	4311      	orrs	r1, r2
 8002b2a:	683a      	ldr	r2, [r7, #0]
 8002b2c:	6912      	ldr	r2, [r2, #16]
 8002b2e:	4311      	orrs	r1, r2
 8002b30:	683a      	ldr	r2, [r7, #0]
 8002b32:	6952      	ldr	r2, [r2, #20]
 8002b34:	430a      	orrs	r2, r1
 8002b36:	431a      	orrs	r2, r3
 8002b38:	687b      	ldr	r3, [r7, #4]
 8002b3a:	60da      	str	r2, [r3, #12]
 8002b3c:	e011      	b.n	8002b62 <LL_ADC_REG_Init+0x72>
                 | pADC_RegInitStruct->Overrun
                );
    }
    else
    {
      MODIFY_REG(ADCx->CFGR,
 8002b3e:	687b      	ldr	r3, [r7, #4]
 8002b40:	68da      	ldr	r2, [r3, #12]
 8002b42:	4b0f      	ldr	r3, [pc, #60]	@ (8002b80 <LL_ADC_REG_Init+0x90>)
 8002b44:	4013      	ands	r3, r2
 8002b46:	683a      	ldr	r2, [r7, #0]
 8002b48:	6811      	ldr	r1, [r2, #0]
 8002b4a:	683a      	ldr	r2, [r7, #0]
 8002b4c:	68d2      	ldr	r2, [r2, #12]
 8002b4e:	4311      	orrs	r1, r2
 8002b50:	683a      	ldr	r2, [r7, #0]
 8002b52:	6912      	ldr	r2, [r2, #16]
 8002b54:	4311      	orrs	r1, r2
 8002b56:	683a      	ldr	r2, [r7, #0]
 8002b58:	6952      	ldr	r2, [r2, #20]
 8002b5a:	430a      	orrs	r2, r1
 8002b5c:	431a      	orrs	r2, r3
 8002b5e:	687b      	ldr	r3, [r7, #4]
 8002b60:	60da      	str	r2, [r3, #12]
                 | pADC_RegInitStruct->Overrun
                );
    }

    /* Set ADC group regular sequencer length and scan direction */
    LL_ADC_REG_SetSequencerLength(ADCx, pADC_RegInitStruct->SequencerLength);
 8002b62:	683b      	ldr	r3, [r7, #0]
 8002b64:	685b      	ldr	r3, [r3, #4]
 8002b66:	4619      	mov	r1, r3
 8002b68:	6878      	ldr	r0, [r7, #4]
 8002b6a:	f7ff ff34 	bl	80029d6 <LL_ADC_REG_SetSequencerLength>
 8002b6e:	e001      	b.n	8002b74 <LL_ADC_REG_Init+0x84>
  }
  else
  {
    /* Initialization error: ADC instance is not disabled. */
    status = ERROR;
 8002b70:	2301      	movs	r3, #1
 8002b72:	73fb      	strb	r3, [r7, #15]
  }
  return status;
 8002b74:	7bfb      	ldrb	r3, [r7, #15]
}
 8002b76:	4618      	mov	r0, r3
 8002b78:	3710      	adds	r7, #16
 8002b7a:	46bd      	mov	sp, r7
 8002b7c:	bd80      	pop	{r7, pc}
 8002b7e:	bf00      	nop
 8002b80:	fff0c01c 	.word	0xfff0c01c

08002b84 <LL_GPIO_SetPinMode>:
{
 8002b84:	b480      	push	{r7}
 8002b86:	b08b      	sub	sp, #44	@ 0x2c
 8002b88:	af00      	add	r7, sp, #0
 8002b8a:	60f8      	str	r0, [r7, #12]
 8002b8c:	60b9      	str	r1, [r7, #8]
 8002b8e:	607a      	str	r2, [r7, #4]
  MODIFY_REG(GPIOx->MODER, (GPIO_MODER_MODE0 << (POSITION_VAL(Pin) * 2U)), (Mode << (POSITION_VAL(Pin) * 2U)));
 8002b90:	68fb      	ldr	r3, [r7, #12]
 8002b92:	681a      	ldr	r2, [r3, #0]
 8002b94:	68bb      	ldr	r3, [r7, #8]
 8002b96:	617b      	str	r3, [r7, #20]
   __ASM volatile ("rbit %0, %1" : "=r" (result) : "r" (value) );
 8002b98:	697b      	ldr	r3, [r7, #20]
 8002b9a:	fa93 f3a3 	rbit	r3, r3
 8002b9e:	613b      	str	r3, [r7, #16]
  return result;
 8002ba0:	693b      	ldr	r3, [r7, #16]
 8002ba2:	61bb      	str	r3, [r7, #24]
  if (value == 0U)
 8002ba4:	69bb      	ldr	r3, [r7, #24]
 8002ba6:	2b00      	cmp	r3, #0
 8002ba8:	d101      	bne.n	8002bae <LL_GPIO_SetPinMode+0x2a>
    return 32U;
 8002baa:	2320      	movs	r3, #32
 8002bac:	e003      	b.n	8002bb6 <LL_GPIO_SetPinMode+0x32>
  return __builtin_clz(value);
 8002bae:	69bb      	ldr	r3, [r7, #24]
 8002bb0:	fab3 f383 	clz	r3, r3
 8002bb4:	b2db      	uxtb	r3, r3
 8002bb6:	005b      	lsls	r3, r3, #1
 8002bb8:	2103      	movs	r1, #3
 8002bba:	fa01 f303 	lsl.w	r3, r1, r3
 8002bbe:	43db      	mvns	r3, r3
 8002bc0:	401a      	ands	r2, r3
 8002bc2:	68bb      	ldr	r3, [r7, #8]
 8002bc4:	623b      	str	r3, [r7, #32]
   __ASM volatile ("rbit %0, %1" : "=r" (result) : "r" (value) );
 8002bc6:	6a3b      	ldr	r3, [r7, #32]
 8002bc8:	fa93 f3a3 	rbit	r3, r3
 8002bcc:	61fb      	str	r3, [r7, #28]
  return result;
 8002bce:	69fb      	ldr	r3, [r7, #28]
 8002bd0:	627b      	str	r3, [r7, #36]	@ 0x24
  if (value == 0U)
 8002bd2:	6a7b      	ldr	r3, [r7, #36]	@ 0x24
 8002bd4:	2b00      	cmp	r3, #0
 8002bd6:	d101      	bne.n	8002bdc <LL_GPIO_SetPinMode+0x58>
    return 32U;
 8002bd8:	2320      	movs	r3, #32
 8002bda:	e003      	b.n	8002be4 <LL_GPIO_SetPinMode+0x60>
  return __builtin_clz(value);
 8002bdc:	6a7b      	ldr	r3, [r7, #36]	@ 0x24
 8002bde:	fab3 f383 	clz	r3, r3
 8002be2:	b2db      	uxtb	r3, r3
 8002be4:	005b      	lsls	r3, r3, #1
 8002be6:	6879      	ldr	r1, [r7, #4]
 8002be8:	fa01 f303 	lsl.w	r3, r1, r3
 8002bec:	431a      	orrs	r2, r3
 8002bee:	68fb      	ldr	r3, [r7, #12]
 8002bf0:	601a      	str	r2, [r3, #0]
}
 8002bf2:	bf00      	nop
 8002bf4:	372c      	adds	r7, #44	@ 0x2c
 8002bf6:	46bd      	mov	sp, r7
 8002bf8:	f85d 7b04 	ldr.w	r7, [sp], #4
 8002bfc:	4770      	bx	lr

08002bfe <LL_GPIO_SetPinOutputType>:
{
 8002bfe:	b480      	push	{r7}
 8002c00:	b085      	sub	sp, #20
 8002c02:	af00      	add	r7, sp, #0
 8002c04:	60f8      	str	r0, [r7, #12]
 8002c06:	60b9      	str	r1, [r7, #8]
 8002c08:	607a      	str	r2, [r7, #4]
  MODIFY_REG(GPIOx->OTYPER, PinMask, (PinMask * OutputType));
 8002c0a:	68fb      	ldr	r3, [r7, #12]
 8002c0c:	685a      	ldr	r2, [r3, #4]
 8002c0e:	68bb      	ldr	r3, [r7, #8]
 8002c10:	43db      	mvns	r3, r3
 8002c12:	401a      	ands	r2, r3
 8002c14:	68bb      	ldr	r3, [r7, #8]
 8002c16:	6879      	ldr	r1, [r7, #4]
 8002c18:	fb01 f303 	mul.w	r3, r1, r3
 8002c1c:	431a      	orrs	r2, r3
 8002c1e:	68fb      	ldr	r3, [r7, #12]
 8002c20:	605a      	str	r2, [r3, #4]
}
 8002c22:	bf00      	nop
 8002c24:	3714      	adds	r7, #20
 8002c26:	46bd      	mov	sp, r7
 8002c28:	f85d 7b04 	ldr.w	r7, [sp], #4
 8002c2c:	4770      	bx	lr

08002c2e <LL_GPIO_SetPinSpeed>:
{
 8002c2e:	b480      	push	{r7}
 8002c30:	b08b      	sub	sp, #44	@ 0x2c
 8002c32:	af00      	add	r7, sp, #0
 8002c34:	60f8      	str	r0, [r7, #12]
 8002c36:	60b9      	str	r1, [r7, #8]
 8002c38:	607a      	str	r2, [r7, #4]
  MODIFY_REG(GPIOx->OSPEEDR, (GPIO_OSPEEDR_OSPEED0 << (POSITION_VAL(Pin) * 2U)),
 8002c3a:	68fb      	ldr	r3, [r7, #12]
 8002c3c:	689a      	ldr	r2, [r3, #8]
 8002c3e:	68bb      	ldr	r3, [r7, #8]
 8002c40:	617b      	str	r3, [r7, #20]
   __ASM volatile ("rbit %0, %1" : "=r" (result) : "r" (value) );
 8002c42:	697b      	ldr	r3, [r7, #20]
 8002c44:	fa93 f3a3 	rbit	r3, r3
 8002c48:	613b      	str	r3, [r7, #16]
  return result;
 8002c4a:	693b      	ldr	r3, [r7, #16]
 8002c4c:	61bb      	str	r3, [r7, #24]
  if (value == 0U)
 8002c4e:	69bb      	ldr	r3, [r7, #24]
 8002c50:	2b00      	cmp	r3, #0
 8002c52:	d101      	bne.n	8002c58 <LL_GPIO_SetPinSpeed+0x2a>
    return 32U;
 8002c54:	2320      	movs	r3, #32
 8002c56:	e003      	b.n	8002c60 <LL_GPIO_SetPinSpeed+0x32>
  return __builtin_clz(value);
 8002c58:	69bb      	ldr	r3, [r7, #24]
 8002c5a:	fab3 f383 	clz	r3, r3
 8002c5e:	b2db      	uxtb	r3, r3
 8002c60:	005b      	lsls	r3, r3, #1
 8002c62:	2103      	movs	r1, #3
 8002c64:	fa01 f303 	lsl.w	r3, r1, r3
 8002c68:	43db      	mvns	r3, r3
 8002c6a:	401a      	ands	r2, r3
 8002c6c:	68bb      	ldr	r3, [r7, #8]
 8002c6e:	623b      	str	r3, [r7, #32]
   __ASM volatile ("rbit %0, %1" : "=r" (result) : "r" (value) );
 8002c70:	6a3b      	ldr	r3, [r7, #32]
 8002c72:	fa93 f3a3 	rbit	r3, r3
 8002c76:	61fb      	str	r3, [r7, #28]
  return result;
 8002c78:	69fb      	ldr	r3, [r7, #28]
 8002c7a:	627b      	str	r3, [r7, #36]	@ 0x24
  if (value == 0U)
 8002c7c:	6a7b      	ldr	r3, [r7, #36]	@ 0x24
 8002c7e:	2b00      	cmp	r3, #0
 8002c80:	d101      	bne.n	8002c86 <LL_GPIO_SetPinSpeed+0x58>
    return 32U;
 8002c82:	2320      	movs	r3, #32
 8002c84:	e003      	b.n	8002c8e <LL_GPIO_SetPinSpeed+0x60>
  return __builtin_clz(value);
 8002c86:	6a7b      	ldr	r3, [r7, #36]	@ 0x24
 8002c88:	fab3 f383 	clz	r3, r3
 8002c8c:	b2db      	uxtb	r3, r3
 8002c8e:	005b      	lsls	r3, r3, #1
 8002c90:	6879      	ldr	r1, [r7, #4]
 8002c92:	fa01 f303 	lsl.w	r3, r1, r3
 8002c96:	431a      	orrs	r2, r3
 8002c98:	68fb      	ldr	r3, [r7, #12]
 8002c9a:	609a      	str	r2, [r3, #8]
}
 8002c9c:	bf00      	nop
 8002c9e:	372c      	adds	r7, #44	@ 0x2c
 8002ca0:	46bd      	mov	sp, r7
 8002ca2:	f85d 7b04 	ldr.w	r7, [sp], #4
 8002ca6:	4770      	bx	lr

08002ca8 <LL_GPIO_SetPinPull>:
{
 8002ca8:	b480      	push	{r7}
 8002caa:	b08b      	sub	sp, #44	@ 0x2c
 8002cac:	af00      	add	r7, sp, #0
 8002cae:	60f8      	str	r0, [r7, #12]
 8002cb0:	60b9      	str	r1, [r7, #8]
 8002cb2:	607a      	str	r2, [r7, #4]
  MODIFY_REG(GPIOx->PUPDR, (GPIO_PUPDR_PUPD0 << (POSITION_VAL(Pin) * 2U)), (Pull << (POSITION_VAL(Pin) * 2U)));
 8002cb4:	68fb      	ldr	r3, [r7, #12]
 8002cb6:	68da      	ldr	r2, [r3, #12]
 8002cb8:	68bb      	ldr	r3, [r7, #8]
 8002cba:	617b      	str	r3, [r7, #20]
   __ASM volatile ("rbit %0, %1" : "=r" (result) : "r" (value) );
 8002cbc:	697b      	ldr	r3, [r7, #20]
 8002cbe:	fa93 f3a3 	rbit	r3, r3
 8002cc2:	613b      	str	r3, [r7, #16]
  return result;
 8002cc4:	693b      	ldr	r3, [r7, #16]
 8002cc6:	61bb      	str	r3, [r7, #24]
  if (value == 0U)
 8002cc8:	69bb      	ldr	r3, [r7, #24]
 8002cca:	2b00      	cmp	r3, #0
 8002ccc:	d101      	bne.n	8002cd2 <LL_GPIO_SetPinPull+0x2a>
    return 32U;
 8002cce:	2320      	movs	r3, #32
 8002cd0:	e003      	b.n	8002cda <LL_GPIO_SetPinPull+0x32>
  return __builtin_clz(value);
 8002cd2:	69bb      	ldr	r3, [r7, #24]
 8002cd4:	fab3 f383 	clz	r3, r3
 8002cd8:	b2db      	uxtb	r3, r3
 8002cda:	005b      	lsls	r3, r3, #1
 8002cdc:	2103      	movs	r1, #3
 8002cde:	fa01 f303 	lsl.w	r3, r1, r3
 8002ce2:	43db      	mvns	r3, r3
 8002ce4:	401a      	ands	r2, r3
 8002ce6:	68bb      	ldr	r3, [r7, #8]
 8002ce8:	623b      	str	r3, [r7, #32]
   __ASM volatile ("rbit %0, %1" : "=r" (result) : "r" (value) );
 8002cea:	6a3b      	ldr	r3, [r7, #32]
 8002cec:	fa93 f3a3 	rbit	r3, r3
 8002cf0:	61fb      	str	r3, [r7, #28]
  return result;
 8002cf2:	69fb      	ldr	r3, [r7, #28]
 8002cf4:	627b      	str	r3, [r7, #36]	@ 0x24
  if (value == 0U)
 8002cf6:	6a7b      	ldr	r3, [r7, #36]	@ 0x24
 8002cf8:	2b00      	cmp	r3, #0
 8002cfa:	d101      	bne.n	8002d00 <LL_GPIO_SetPinPull+0x58>
    return 32U;
 8002cfc:	2320      	movs	r3, #32
 8002cfe:	e003      	b.n	8002d08 <LL_GPIO_SetPinPull+0x60>
  return __builtin_clz(value);
 8002d00:	6a7b      	ldr	r3, [r7, #36]	@ 0x24
 8002d02:	fab3 f383 	clz	r3, r3
 8002d06:	b2db      	uxtb	r3, r3
 8002d08:	005b      	lsls	r3, r3, #1
 8002d0a:	6879      	ldr	r1, [r7, #4]
 8002d0c:	fa01 f303 	lsl.w	r3, r1, r3
 8002d10:	431a      	orrs	r2, r3
 8002d12:	68fb      	ldr	r3, [r7, #12]
 8002d14:	60da      	str	r2, [r3, #12]
}
 8002d16:	bf00      	nop
 8002d18:	372c      	adds	r7, #44	@ 0x2c
 8002d1a:	46bd      	mov	sp, r7
 8002d1c:	f85d 7b04 	ldr.w	r7, [sp], #4
 8002d20:	4770      	bx	lr

08002d22 <LL_GPIO_SetAFPin_0_7>:
{
 8002d22:	b480      	push	{r7}
 8002d24:	b08b      	sub	sp, #44	@ 0x2c
 8002d26:	af00      	add	r7, sp, #0
 8002d28:	60f8      	str	r0, [r7, #12]
 8002d2a:	60b9      	str	r1, [r7, #8]
 8002d2c:	607a      	str	r2, [r7, #4]
  MODIFY_REG(GPIOx->AFR[0], (GPIO_AFRL_AFSEL0 << (POSITION_VAL(Pin) * 4U)),
 8002d2e:	68fb      	ldr	r3, [r7, #12]
 8002d30:	6a1a      	ldr	r2, [r3, #32]
 8002d32:	68bb      	ldr	r3, [r7, #8]
 8002d34:	617b      	str	r3, [r7, #20]
   __ASM volatile ("rbit %0, %1" : "=r" (result) : "r" (value) );
 8002d36:	697b      	ldr	r3, [r7, #20]
 8002d38:	fa93 f3a3 	rbit	r3, r3
 8002d3c:	613b      	str	r3, [r7, #16]
  return result;
 8002d3e:	693b      	ldr	r3, [r7, #16]
 8002d40:	61bb      	str	r3, [r7, #24]
  if (value == 0U)
 8002d42:	69bb      	ldr	r3, [r7, #24]
 8002d44:	2b00      	cmp	r3, #0
 8002d46:	d101      	bne.n	8002d4c <LL_GPIO_SetAFPin_0_7+0x2a>
    return 32U;
 8002d48:	2320      	movs	r3, #32
 8002d4a:	e003      	b.n	8002d54 <LL_GPIO_SetAFPin_0_7+0x32>
  return __builtin_clz(value);
 8002d4c:	69bb      	ldr	r3, [r7, #24]
 8002d4e:	fab3 f383 	clz	r3, r3
 8002d52:	b2db      	uxtb	r3, r3
 8002d54:	009b      	lsls	r3, r3, #2
 8002d56:	210f      	movs	r1, #15
 8002d58:	fa01 f303 	lsl.w	r3, r1, r3
 8002d5c:	43db      	mvns	r3, r3
 8002d5e:	401a      	ands	r2, r3
 8002d60:	68bb      	ldr	r3, [r7, #8]
 8002d62:	623b      	str	r3, [r7, #32]
   __ASM volatile ("rbit %0, %1" : "=r" (result) : "r" (value) );
 8002d64:	6a3b      	ldr	r3, [r7, #32]
 8002d66:	fa93 f3a3 	rbit	r3, r3
 8002d6a:	61fb      	str	r3, [r7, #28]
  return result;
 8002d6c:	69fb      	ldr	r3, [r7, #28]
 8002d6e:	627b      	str	r3, [r7, #36]	@ 0x24
  if (value == 0U)
 8002d70:	6a7b      	ldr	r3, [r7, #36]	@ 0x24
 8002d72:	2b00      	cmp	r3, #0
 8002d74:	d101      	bne.n	8002d7a <LL_GPIO_SetAFPin_0_7+0x58>
    return 32U;
 8002d76:	2320      	movs	r3, #32
 8002d78:	e003      	b.n	8002d82 <LL_GPIO_SetAFPin_0_7+0x60>
  return __builtin_clz(value);
 8002d7a:	6a7b      	ldr	r3, [r7, #36]	@ 0x24
 8002d7c:	fab3 f383 	clz	r3, r3
 8002d80:	b2db      	uxtb	r3, r3
 8002d82:	009b      	lsls	r3, r3, #2
 8002d84:	6879      	ldr	r1, [r7, #4]
 8002d86:	fa01 f303 	lsl.w	r3, r1, r3
 8002d8a:	431a      	orrs	r2, r3
 8002d8c:	68fb      	ldr	r3, [r7, #12]
 8002d8e:	621a      	str	r2, [r3, #32]
}
 8002d90:	bf00      	nop
 8002d92:	372c      	adds	r7, #44	@ 0x2c
 8002d94:	46bd      	mov	sp, r7
 8002d96:	f85d 7b04 	ldr.w	r7, [sp], #4
 8002d9a:	4770      	bx	lr

08002d9c <LL_GPIO_SetAFPin_8_15>:
{
 8002d9c:	b480      	push	{r7}
 8002d9e:	b08b      	sub	sp, #44	@ 0x2c
 8002da0:	af00      	add	r7, sp, #0
 8002da2:	60f8      	str	r0, [r7, #12]
 8002da4:	60b9      	str	r1, [r7, #8]
 8002da6:	607a      	str	r2, [r7, #4]
  MODIFY_REG(GPIOx->AFR[1], (GPIO_AFRH_AFSEL8 << (POSITION_VAL(Pin >> 8U) * 4U)),
 8002da8:	68fb      	ldr	r3, [r7, #12]
 8002daa:	6a5a      	ldr	r2, [r3, #36]	@ 0x24
 8002dac:	68bb      	ldr	r3, [r7, #8]
 8002dae:	0a1b      	lsrs	r3, r3, #8
 8002db0:	617b      	str	r3, [r7, #20]
   __ASM volatile ("rbit %0, %1" : "=r" (result) : "r" (value) );
 8002db2:	697b      	ldr	r3, [r7, #20]
 8002db4:	fa93 f3a3 	rbit	r3, r3
 8002db8:	613b      	str	r3, [r7, #16]
  return result;
 8002dba:	693b      	ldr	r3, [r7, #16]
 8002dbc:	61bb      	str	r3, [r7, #24]
  if (value == 0U)
 8002dbe:	69bb      	ldr	r3, [r7, #24]
 8002dc0:	2b00      	cmp	r3, #0
 8002dc2:	d101      	bne.n	8002dc8 <LL_GPIO_SetAFPin_8_15+0x2c>
    return 32U;
 8002dc4:	2320      	movs	r3, #32
 8002dc6:	e003      	b.n	8002dd0 <LL_GPIO_SetAFPin_8_15+0x34>
  return __builtin_clz(value);
 8002dc8:	69bb      	ldr	r3, [r7, #24]
 8002dca:	fab3 f383 	clz	r3, r3
 8002dce:	b2db      	uxtb	r3, r3
 8002dd0:	009b      	lsls	r3, r3, #2
 8002dd2:	210f      	movs	r1, #15
 8002dd4:	fa01 f303 	lsl.w	r3, r1, r3
 8002dd8:	43db      	mvns	r3, r3
 8002dda:	401a      	ands	r2, r3
 8002ddc:	68bb      	ldr	r3, [r7, #8]
 8002dde:	0a1b      	lsrs	r3, r3, #8
 8002de0:	623b      	str	r3, [r7, #32]
   __ASM volatile ("rbit %0, %1" : "=r" (result) : "r" (value) );
 8002de2:	6a3b      	ldr	r3, [r7, #32]
 8002de4:	fa93 f3a3 	rbit	r3, r3
 8002de8:	61fb      	str	r3, [r7, #28]
  return result;
 8002dea:	69fb      	ldr	r3, [r7, #28]
 8002dec:	627b      	str	r3, [r7, #36]	@ 0x24
  if (value == 0U)
 8002dee:	6a7b      	ldr	r3, [r7, #36]	@ 0x24
 8002df0:	2b00      	cmp	r3, #0
 8002df2:	d101      	bne.n	8002df8 <LL_GPIO_SetAFPin_8_15+0x5c>
    return 32U;
 8002df4:	2320      	movs	r3, #32
 8002df6:	e003      	b.n	8002e00 <LL_GPIO_SetAFPin_8_15+0x64>
  return __builtin_clz(value);
 8002df8:	6a7b      	ldr	r3, [r7, #36]	@ 0x24
 8002dfa:	fab3 f383 	clz	r3, r3
 8002dfe:	b2db      	uxtb	r3, r3
 8002e00:	009b      	lsls	r3, r3, #2
 8002e02:	6879      	ldr	r1, [r7, #4]
 8002e04:	fa01 f303 	lsl.w	r3, r1, r3
 8002e08:	431a      	orrs	r2, r3
 8002e0a:	68fb      	ldr	r3, [r7, #12]
 8002e0c:	625a      	str	r2, [r3, #36]	@ 0x24
}
 8002e0e:	bf00      	nop
 8002e10:	372c      	adds	r7, #44	@ 0x2c
 8002e12:	46bd      	mov	sp, r7
 8002e14:	f85d 7b04 	ldr.w	r7, [sp], #4
 8002e18:	4770      	bx	lr

08002e1a <LL_GPIO_Init>:
  * @retval An ErrorStatus enumeration value:
  *          - SUCCESS: GPIO registers are initialized according to GPIO_InitStruct content
  *          - ERROR:   Not applicable
  */
ErrorStatus LL_GPIO_Init(GPIO_TypeDef *GPIOx, LL_GPIO_InitTypeDef *GPIO_InitStruct)
{
 8002e1a:	b580      	push	{r7, lr}
 8002e1c:	b088      	sub	sp, #32
 8002e1e:	af00      	add	r7, sp, #0
 8002e20:	6078      	str	r0, [r7, #4]
 8002e22:	6039      	str	r1, [r7, #0]
  assert_param(IS_LL_GPIO_MODE(GPIO_InitStruct->Mode));
  assert_param(IS_LL_GPIO_PULL(GPIO_InitStruct->Pull));

  /* ------------------------- Configure the port pins ---------------- */
  /* Initialize  pinpos on first pin set */
  pinpos = POSITION_VAL(GPIO_InitStruct->Pin);
 8002e24:	683b      	ldr	r3, [r7, #0]
 8002e26:	681b      	ldr	r3, [r3, #0]
 8002e28:	613b      	str	r3, [r7, #16]
   __ASM volatile ("rbit %0, %1" : "=r" (result) : "r" (value) );
 8002e2a:	693b      	ldr	r3, [r7, #16]
 8002e2c:	fa93 f3a3 	rbit	r3, r3
 8002e30:	60fb      	str	r3, [r7, #12]
  return result;
 8002e32:	68fb      	ldr	r3, [r7, #12]
 8002e34:	617b      	str	r3, [r7, #20]
  if (value == 0U)
 8002e36:	697b      	ldr	r3, [r7, #20]
 8002e38:	2b00      	cmp	r3, #0
 8002e3a:	d101      	bne.n	8002e40 <LL_GPIO_Init+0x26>
    return 32U;
 8002e3c:	2320      	movs	r3, #32
 8002e3e:	e003      	b.n	8002e48 <LL_GPIO_Init+0x2e>
  return __builtin_clz(value);
 8002e40:	697b      	ldr	r3, [r7, #20]
 8002e42:	fab3 f383 	clz	r3, r3
 8002e46:	b2db      	uxtb	r3, r3
 8002e48:	61fb      	str	r3, [r7, #28]

  /* Configure the port pins */
  while (((GPIO_InitStruct->Pin) >> pinpos) != 0x00000000U)
 8002e4a:	e048      	b.n	8002ede <LL_GPIO_Init+0xc4>
  {
    /* Get current io position */
    currentpin = (GPIO_InitStruct->Pin) & (0x00000001UL << pinpos);
 8002e4c:	683b      	ldr	r3, [r7, #0]
 8002e4e:	681a      	ldr	r2, [r3, #0]
 8002e50:	2101      	movs	r1, #1
 8002e52:	69fb      	ldr	r3, [r7, #28]
 8002e54:	fa01 f303 	lsl.w	r3, r1, r3
 8002e58:	4013      	ands	r3, r2
 8002e5a:	61bb      	str	r3, [r7, #24]

    if (currentpin != 0x00u)
 8002e5c:	69bb      	ldr	r3, [r7, #24]
 8002e5e:	2b00      	cmp	r3, #0
 8002e60:	d03a      	beq.n	8002ed8 <LL_GPIO_Init+0xbe>
    {
      if ((GPIO_InitStruct->Mode == LL_GPIO_MODE_OUTPUT) || (GPIO_InitStruct->Mode == LL_GPIO_MODE_ALTERNATE))
 8002e62:	683b      	ldr	r3, [r7, #0]
 8002e64:	685b      	ldr	r3, [r3, #4]
 8002e66:	2b01      	cmp	r3, #1
 8002e68:	d003      	beq.n	8002e72 <LL_GPIO_Init+0x58>
 8002e6a:	683b      	ldr	r3, [r7, #0]
 8002e6c:	685b      	ldr	r3, [r3, #4]
 8002e6e:	2b02      	cmp	r3, #2
 8002e70:	d10e      	bne.n	8002e90 <LL_GPIO_Init+0x76>
      {
        /* Check Speed mode parameters */
        assert_param(IS_LL_GPIO_SPEED(GPIO_InitStruct->Speed));

        /* Speed mode configuration */
        LL_GPIO_SetPinSpeed(GPIOx, currentpin, GPIO_InitStruct->Speed);
 8002e72:	683b      	ldr	r3, [r7, #0]
 8002e74:	689b      	ldr	r3, [r3, #8]
 8002e76:	461a      	mov	r2, r3
 8002e78:	69b9      	ldr	r1, [r7, #24]
 8002e7a:	6878      	ldr	r0, [r7, #4]
 8002e7c:	f7ff fed7 	bl	8002c2e <LL_GPIO_SetPinSpeed>

        /* Check Output mode parameters */
        assert_param(IS_LL_GPIO_OUTPUT_TYPE(GPIO_InitStruct->OutputType));

        /* Output mode configuration*/
        LL_GPIO_SetPinOutputType(GPIOx, GPIO_InitStruct->Pin, GPIO_InitStruct->OutputType);
 8002e80:	683b      	ldr	r3, [r7, #0]
 8002e82:	6819      	ldr	r1, [r3, #0]
 8002e84:	683b      	ldr	r3, [r7, #0]
 8002e86:	68db      	ldr	r3, [r3, #12]
 8002e88:	461a      	mov	r2, r3
 8002e8a:	6878      	ldr	r0, [r7, #4]
 8002e8c:	f7ff feb7 	bl	8002bfe <LL_GPIO_SetPinOutputType>
      }

      /* Pull-up Pull down resistor configuration*/
      LL_GPIO_SetPinPull(GPIOx, currentpin, GPIO_InitStruct->Pull);
 8002e90:	683b      	ldr	r3, [r7, #0]
 8002e92:	691b      	ldr	r3, [r3, #16]
 8002e94:	461a      	mov	r2, r3
 8002e96:	69b9      	ldr	r1, [r7, #24]
 8002e98:	6878      	ldr	r0, [r7, #4]
 8002e9a:	f7ff ff05 	bl	8002ca8 <LL_GPIO_SetPinPull>

      if (GPIO_InitStruct->Mode == LL_GPIO_MODE_ALTERNATE)
 8002e9e:	683b      	ldr	r3, [r7, #0]
 8002ea0:	685b      	ldr	r3, [r3, #4]
 8002ea2:	2b02      	cmp	r3, #2
 8002ea4:	d111      	bne.n	8002eca <LL_GPIO_Init+0xb0>
      {
        /* Check Alternate parameter */
        assert_param(IS_LL_GPIO_ALTERNATE(GPIO_InitStruct->Alternate));

        /* Speed mode configuration */
        if (currentpin < LL_GPIO_PIN_8)
 8002ea6:	69bb      	ldr	r3, [r7, #24]
 8002ea8:	2bff      	cmp	r3, #255	@ 0xff
 8002eaa:	d807      	bhi.n	8002ebc <LL_GPIO_Init+0xa2>
        {
          LL_GPIO_SetAFPin_0_7(GPIOx, currentpin, GPIO_InitStruct->Alternate);
 8002eac:	683b      	ldr	r3, [r7, #0]
 8002eae:	695b      	ldr	r3, [r3, #20]
 8002eb0:	461a      	mov	r2, r3
 8002eb2:	69b9      	ldr	r1, [r7, #24]
 8002eb4:	6878      	ldr	r0, [r7, #4]
 8002eb6:	f7ff ff34 	bl	8002d22 <LL_GPIO_SetAFPin_0_7>
 8002eba:	e006      	b.n	8002eca <LL_GPIO_Init+0xb0>
        }
        else
        {
          LL_GPIO_SetAFPin_8_15(GPIOx, currentpin, GPIO_InitStruct->Alternate);
 8002ebc:	683b      	ldr	r3, [r7, #0]
 8002ebe:	695b      	ldr	r3, [r3, #20]
 8002ec0:	461a      	mov	r2, r3
 8002ec2:	69b9      	ldr	r1, [r7, #24]
 8002ec4:	6878      	ldr	r0, [r7, #4]
 8002ec6:	f7ff ff69 	bl	8002d9c <LL_GPIO_SetAFPin_8_15>
        }
      }

      /* Pin Mode configuration */
      LL_GPIO_SetPinMode(GPIOx, currentpin, GPIO_InitStruct->Mode);
 8002eca:	683b      	ldr	r3, [r7, #0]
 8002ecc:	685b      	ldr	r3, [r3, #4]
 8002ece:	461a      	mov	r2, r3
 8002ed0:	69b9      	ldr	r1, [r7, #24]
 8002ed2:	6878      	ldr	r0, [r7, #4]
 8002ed4:	f7ff fe56 	bl	8002b84 <LL_GPIO_SetPinMode>
    }
    pinpos++;
 8002ed8:	69fb      	ldr	r3, [r7, #28]
 8002eda:	3301      	adds	r3, #1
 8002edc:	61fb      	str	r3, [r7, #28]
  while (((GPIO_InitStruct->Pin) >> pinpos) != 0x00000000U)
 8002ede:	683b      	ldr	r3, [r7, #0]
 8002ee0:	681a      	ldr	r2, [r3, #0]
 8002ee2:	69fb      	ldr	r3, [r7, #28]
 8002ee4:	fa22 f303 	lsr.w	r3, r2, r3
 8002ee8:	2b00      	cmp	r3, #0
 8002eea:	d1af      	bne.n	8002e4c <LL_GPIO_Init+0x32>
  }
  return (SUCCESS);
 8002eec:	2300      	movs	r3, #0
}
 8002eee:	4618      	mov	r0, r3
 8002ef0:	3720      	adds	r7, #32
 8002ef2:	46bd      	mov	sp, r7
 8002ef4:	bd80      	pop	{r7, pc}
	...

08002ef8 <LL_RCC_HSI_IsReady>:
{
 8002ef8:	b480      	push	{r7}
 8002efa:	af00      	add	r7, sp, #0
  return ((READ_BIT(RCC->CR, RCC_CR_HSIRDY) == (RCC_CR_HSIRDY)) ? 1UL : 0UL);
 8002efc:	4b07      	ldr	r3, [pc, #28]	@ (8002f1c <LL_RCC_HSI_IsReady+0x24>)
 8002efe:	681b      	ldr	r3, [r3, #0]
 8002f00:	f403 6380 	and.w	r3, r3, #1024	@ 0x400
 8002f04:	f5b3 6f80 	cmp.w	r3, #1024	@ 0x400
 8002f08:	d101      	bne.n	8002f0e <LL_RCC_HSI_IsReady+0x16>
 8002f0a:	2301      	movs	r3, #1
 8002f0c:	e000      	b.n	8002f10 <LL_RCC_HSI_IsReady+0x18>
 8002f0e:	2300      	movs	r3, #0
}
 8002f10:	4618      	mov	r0, r3
 8002f12:	46bd      	mov	sp, r7
 8002f14:	f85d 7b04 	ldr.w	r7, [sp], #4
 8002f18:	4770      	bx	lr
 8002f1a:	bf00      	nop
 8002f1c:	40021000 	.word	0x40021000

08002f20 <LL_RCC_LSE_IsReady>:
{
 8002f20:	b480      	push	{r7}
 8002f22:	af00      	add	r7, sp, #0
  return ((READ_BIT(RCC->BDCR, RCC_BDCR_LSERDY) == (RCC_BDCR_LSERDY)) ? 1UL : 0UL);
 8002f24:	4b07      	ldr	r3, [pc, #28]	@ (8002f44 <LL_RCC_LSE_IsReady+0x24>)
 8002f26:	f8d3 3090 	ldr.w	r3, [r3, #144]	@ 0x90
 8002f2a:	f003 0302 	and.w	r3, r3, #2
 8002f2e:	2b02      	cmp	r3, #2
 8002f30:	d101      	bne.n	8002f36 <LL_RCC_LSE_IsReady+0x16>
 8002f32:	2301      	movs	r3, #1
 8002f34:	e000      	b.n	8002f38 <LL_RCC_LSE_IsReady+0x18>
 8002f36:	2300      	movs	r3, #0
}
 8002f38:	4618      	mov	r0, r3
 8002f3a:	46bd      	mov	sp, r7
 8002f3c:	f85d 7b04 	ldr.w	r7, [sp], #4
 8002f40:	4770      	bx	lr
 8002f42:	bf00      	nop
 8002f44:	40021000 	.word	0x40021000

08002f48 <LL_RCC_GetSysClkSource>:
{
 8002f48:	b480      	push	{r7}
 8002f4a:	af00      	add	r7, sp, #0
  return (uint32_t)(READ_BIT(RCC->CFGR, RCC_CFGR_SWS));
 8002f4c:	4b04      	ldr	r3, [pc, #16]	@ (8002f60 <LL_RCC_GetSysClkSource+0x18>)
 8002f4e:	689b      	ldr	r3, [r3, #8]
 8002f50:	f003 030c 	and.w	r3, r3, #12
}
 8002f54:	4618      	mov	r0, r3
 8002f56:	46bd      	mov	sp, r7
 8002f58:	f85d 7b04 	ldr.w	r7, [sp], #4
 8002f5c:	4770      	bx	lr
 8002f5e:	bf00      	nop
 8002f60:	40021000 	.word	0x40021000

08002f64 <LL_RCC_GetAHBPrescaler>:
{
 8002f64:	b480      	push	{r7}
 8002f66:	af00      	add	r7, sp, #0
  return (uint32_t)(READ_BIT(RCC->CFGR, RCC_CFGR_HPRE));
 8002f68:	4b04      	ldr	r3, [pc, #16]	@ (8002f7c <LL_RCC_GetAHBPrescaler+0x18>)
 8002f6a:	689b      	ldr	r3, [r3, #8]
 8002f6c:	f003 03f0 	and.w	r3, r3, #240	@ 0xf0
}
 8002f70:	4618      	mov	r0, r3
 8002f72:	46bd      	mov	sp, r7
 8002f74:	f85d 7b04 	ldr.w	r7, [sp], #4
 8002f78:	4770      	bx	lr
 8002f7a:	bf00      	nop
 8002f7c:	40021000 	.word	0x40021000

08002f80 <LL_RCC_GetAPB1Prescaler>:
{
 8002f80:	b480      	push	{r7}
 8002f82:	af00      	add	r7, sp, #0
  return (uint32_t)(READ_BIT(RCC->CFGR, RCC_CFGR_PPRE1));
 8002f84:	4b04      	ldr	r3, [pc, #16]	@ (8002f98 <LL_RCC_GetAPB1Prescaler+0x18>)
 8002f86:	689b      	ldr	r3, [r3, #8]
 8002f88:	f403 63e0 	and.w	r3, r3, #1792	@ 0x700
}
 8002f8c:	4618      	mov	r0, r3
 8002f8e:	46bd      	mov	sp, r7
 8002f90:	f85d 7b04 	ldr.w	r7, [sp], #4
 8002f94:	4770      	bx	lr
 8002f96:	bf00      	nop
 8002f98:	40021000 	.word	0x40021000

08002f9c <LL_RCC_GetAPB2Prescaler>:
{
 8002f9c:	b480      	push	{r7}
 8002f9e:	af00      	add	r7, sp, #0
  return (uint32_t)(READ_BIT(RCC->CFGR, RCC_CFGR_PPRE2));
 8002fa0:	4b04      	ldr	r3, [pc, #16]	@ (8002fb4 <LL_RCC_GetAPB2Prescaler+0x18>)
 8002fa2:	689b      	ldr	r3, [r3, #8]
 8002fa4:	f403 5360 	and.w	r3, r3, #14336	@ 0x3800
}
 8002fa8:	4618      	mov	r0, r3
 8002faa:	46bd      	mov	sp, r7
 8002fac:	f85d 7b04 	ldr.w	r7, [sp], #4
 8002fb0:	4770      	bx	lr
 8002fb2:	bf00      	nop
 8002fb4:	40021000 	.word	0x40021000

08002fb8 <LL_RCC_GetUSARTClockSource>:
{
 8002fb8:	b480      	push	{r7}
 8002fba:	b083      	sub	sp, #12
 8002fbc:	af00      	add	r7, sp, #0
 8002fbe:	6078      	str	r0, [r7, #4]
  return (uint32_t)(READ_BIT(RCC->CCIPR, USARTx) | (USARTx << 16U));
 8002fc0:	4b06      	ldr	r3, [pc, #24]	@ (8002fdc <LL_RCC_GetUSARTClockSource+0x24>)
 8002fc2:	f8d3 2088 	ldr.w	r2, [r3, #136]	@ 0x88
 8002fc6:	687b      	ldr	r3, [r7, #4]
 8002fc8:	401a      	ands	r2, r3
 8002fca:	687b      	ldr	r3, [r7, #4]
 8002fcc:	041b      	lsls	r3, r3, #16
 8002fce:	4313      	orrs	r3, r2
}
 8002fd0:	4618      	mov	r0, r3
 8002fd2:	370c      	adds	r7, #12
 8002fd4:	46bd      	mov	sp, r7
 8002fd6:	f85d 7b04 	ldr.w	r7, [sp], #4
 8002fda:	4770      	bx	lr
 8002fdc:	40021000 	.word	0x40021000

08002fe0 <LL_RCC_GetUARTClockSource>:
{
 8002fe0:	b480      	push	{r7}
 8002fe2:	b083      	sub	sp, #12
 8002fe4:	af00      	add	r7, sp, #0
 8002fe6:	6078      	str	r0, [r7, #4]
  return (uint32_t)(READ_BIT(RCC->CCIPR, UARTx) | (UARTx << 16U));
 8002fe8:	4b06      	ldr	r3, [pc, #24]	@ (8003004 <LL_RCC_GetUARTClockSource+0x24>)
 8002fea:	f8d3 2088 	ldr.w	r2, [r3, #136]	@ 0x88
 8002fee:	687b      	ldr	r3, [r7, #4]
 8002ff0:	401a      	ands	r2, r3
 8002ff2:	687b      	ldr	r3, [r7, #4]
 8002ff4:	041b      	lsls	r3, r3, #16
 8002ff6:	4313      	orrs	r3, r2
}
 8002ff8:	4618      	mov	r0, r3
 8002ffa:	370c      	adds	r7, #12
 8002ffc:	46bd      	mov	sp, r7
 8002ffe:	f85d 7b04 	ldr.w	r7, [sp], #4
 8003002:	4770      	bx	lr
 8003004:	40021000 	.word	0x40021000

08003008 <LL_RCC_PLL_GetMainSource>:
{
 8003008:	b480      	push	{r7}
 800300a:	af00      	add	r7, sp, #0
  return (uint32_t)(READ_BIT(RCC->PLLCFGR, RCC_PLLCFGR_PLLSRC));
 800300c:	4b04      	ldr	r3, [pc, #16]	@ (8003020 <LL_RCC_PLL_GetMainSource+0x18>)
 800300e:	68db      	ldr	r3, [r3, #12]
 8003010:	f003 0303 	and.w	r3, r3, #3
}
 8003014:	4618      	mov	r0, r3
 8003016:	46bd      	mov	sp, r7
 8003018:	f85d 7b04 	ldr.w	r7, [sp], #4
 800301c:	4770      	bx	lr
 800301e:	bf00      	nop
 8003020:	40021000 	.word	0x40021000

08003024 <LL_RCC_PLL_GetN>:
{
 8003024:	b480      	push	{r7}
 8003026:	af00      	add	r7, sp, #0
  return (uint32_t)(READ_BIT(RCC->PLLCFGR, RCC_PLLCFGR_PLLN) >>  RCC_PLLCFGR_PLLN_Pos);
 8003028:	4b04      	ldr	r3, [pc, #16]	@ (800303c <LL_RCC_PLL_GetN+0x18>)
 800302a:	68db      	ldr	r3, [r3, #12]
 800302c:	0a1b      	lsrs	r3, r3, #8
 800302e:	f003 037f 	and.w	r3, r3, #127	@ 0x7f
}
 8003032:	4618      	mov	r0, r3
 8003034:	46bd      	mov	sp, r7
 8003036:	f85d 7b04 	ldr.w	r7, [sp], #4
 800303a:	4770      	bx	lr
 800303c:	40021000 	.word	0x40021000

08003040 <LL_RCC_PLL_GetR>:
{
 8003040:	b480      	push	{r7}
 8003042:	af00      	add	r7, sp, #0
  return (uint32_t)(READ_BIT(RCC->PLLCFGR, RCC_PLLCFGR_PLLR));
 8003044:	4b04      	ldr	r3, [pc, #16]	@ (8003058 <LL_RCC_PLL_GetR+0x18>)
 8003046:	68db      	ldr	r3, [r3, #12]
 8003048:	f003 63c0 	and.w	r3, r3, #100663296	@ 0x6000000
}
 800304c:	4618      	mov	r0, r3
 800304e:	46bd      	mov	sp, r7
 8003050:	f85d 7b04 	ldr.w	r7, [sp], #4
 8003054:	4770      	bx	lr
 8003056:	bf00      	nop
 8003058:	40021000 	.word	0x40021000

0800305c <LL_RCC_PLL_GetDivider>:
{
 800305c:	b480      	push	{r7}
 800305e:	af00      	add	r7, sp, #0
  return (uint32_t)(READ_BIT(RCC->PLLCFGR, RCC_PLLCFGR_PLLM));
 8003060:	4b04      	ldr	r3, [pc, #16]	@ (8003074 <LL_RCC_PLL_GetDivider+0x18>)
 8003062:	68db      	ldr	r3, [r3, #12]
 8003064:	f003 03f0 	and.w	r3, r3, #240	@ 0xf0
}
 8003068:	4618      	mov	r0, r3
 800306a:	46bd      	mov	sp, r7
 800306c:	f85d 7b04 	ldr.w	r7, [sp], #4
 8003070:	4770      	bx	lr
 8003072:	bf00      	nop
 8003074:	40021000 	.word	0x40021000

08003078 <LL_RCC_GetUSARTClockFreq>:
  *
  * @retval USART clock frequency (in Hz)
  *         - @ref  LL_RCC_PERIPH_FREQUENCY_NO indicates that oscillator (HSI or LSE) is not ready
  */
uint32_t LL_RCC_GetUSARTClockFreq(uint32_t USARTxSource)
{
 8003078:	b580      	push	{r7, lr}
 800307a:	b084      	sub	sp, #16
 800307c:	af00      	add	r7, sp, #0
 800307e:	6078      	str	r0, [r7, #4]
  uint32_t usart_frequency = LL_RCC_PERIPH_FREQUENCY_NO;
 8003080:	2300      	movs	r3, #0
 8003082:	60fb      	str	r3, [r7, #12]

  /* Check parameter */
  assert_param(IS_LL_RCC_USART_CLKSOURCE(USARTxSource));

  if (USARTxSource == LL_RCC_USART1_CLKSOURCE)
 8003084:	687b      	ldr	r3, [r7, #4]
 8003086:	2b03      	cmp	r3, #3
 8003088:	d132      	bne.n	80030f0 <LL_RCC_GetUSARTClockFreq+0x78>
  {
    /* USART1CLK clock frequency */
    switch (LL_RCC_GetUSARTClockSource(USARTxSource))
 800308a:	6878      	ldr	r0, [r7, #4]
 800308c:	f7ff ff94 	bl	8002fb8 <LL_RCC_GetUSARTClockSource>
 8003090:	4603      	mov	r3, r0
 8003092:	f1b3 1f03 	cmp.w	r3, #196611	@ 0x30003
 8003096:	d016      	beq.n	80030c6 <LL_RCC_GetUSARTClockFreq+0x4e>
 8003098:	f1b3 1f03 	cmp.w	r3, #196611	@ 0x30003
 800309c:	d81c      	bhi.n	80030d8 <LL_RCC_GetUSARTClockFreq+0x60>
 800309e:	4a51      	ldr	r2, [pc, #324]	@ (80031e4 <LL_RCC_GetUSARTClockFreq+0x16c>)
 80030a0:	4293      	cmp	r3, r2
 80030a2:	d003      	beq.n	80030ac <LL_RCC_GetUSARTClockFreq+0x34>
 80030a4:	4a50      	ldr	r2, [pc, #320]	@ (80031e8 <LL_RCC_GetUSARTClockFreq+0x170>)
 80030a6:	4293      	cmp	r3, r2
 80030a8:	d004      	beq.n	80030b4 <LL_RCC_GetUSARTClockFreq+0x3c>
 80030aa:	e015      	b.n	80030d8 <LL_RCC_GetUSARTClockFreq+0x60>
    {
      case LL_RCC_USART1_CLKSOURCE_SYSCLK: /* USART1 Clock is System Clock */
        usart_frequency = RCC_GetSystemClockFreq();
 80030ac:	f000 f8f2 	bl	8003294 <RCC_GetSystemClockFreq>
 80030b0:	60f8      	str	r0, [r7, #12]
        break;
 80030b2:	e092      	b.n	80031da <LL_RCC_GetUSARTClockFreq+0x162>

      case LL_RCC_USART1_CLKSOURCE_HSI:    /* USART1 Clock is HSI Osc. */
        if (LL_RCC_HSI_IsReady() != 0U)
 80030b4:	f7ff ff20 	bl	8002ef8 <LL_RCC_HSI_IsReady>
 80030b8:	4603      	mov	r3, r0
 80030ba:	2b00      	cmp	r3, #0
 80030bc:	f000 8082 	beq.w	80031c4 <LL_RCC_GetUSARTClockFreq+0x14c>
        {
          usart_frequency = HSI_VALUE;
 80030c0:	4b4a      	ldr	r3, [pc, #296]	@ (80031ec <LL_RCC_GetUSARTClockFreq+0x174>)
 80030c2:	60fb      	str	r3, [r7, #12]
        }
        break;
 80030c4:	e07e      	b.n	80031c4 <LL_RCC_GetUSARTClockFreq+0x14c>

      case LL_RCC_USART1_CLKSOURCE_LSE:    /* USART1 Clock is LSE Osc. */
        if (LL_RCC_LSE_IsReady() != 0U)
 80030c6:	f7ff ff2b 	bl	8002f20 <LL_RCC_LSE_IsReady>
 80030ca:	4603      	mov	r3, r0
 80030cc:	2b00      	cmp	r3, #0
 80030ce:	d07b      	beq.n	80031c8 <LL_RCC_GetUSARTClockFreq+0x150>
        {
          usart_frequency = LSE_VALUE;
 80030d0:	f44f 4300 	mov.w	r3, #32768	@ 0x8000
 80030d4:	60fb      	str	r3, [r7, #12]
        }
        break;
 80030d6:	e077      	b.n	80031c8 <LL_RCC_GetUSARTClockFreq+0x150>

      case LL_RCC_USART1_CLKSOURCE_PCLK2:  /* USART1 Clock is PCLK2 */
      default:
        usart_frequency = RCC_GetPCLK2ClockFreq(RCC_GetHCLKClockFreq(RCC_GetSystemClockFreq()));
 80030d8:	f000 f8dc 	bl	8003294 <RCC_GetSystemClockFreq>
 80030dc:	4603      	mov	r3, r0
 80030de:	4618      	mov	r0, r3
 80030e0:	f000 f8fe 	bl	80032e0 <RCC_GetHCLKClockFreq>
 80030e4:	4603      	mov	r3, r0
 80030e6:	4618      	mov	r0, r3
 80030e8:	f000 f928 	bl	800333c <RCC_GetPCLK2ClockFreq>
 80030ec:	60f8      	str	r0, [r7, #12]
        break;
 80030ee:	e074      	b.n	80031da <LL_RCC_GetUSARTClockFreq+0x162>
    }
  }
  else if (USARTxSource == LL_RCC_USART2_CLKSOURCE)
 80030f0:	687b      	ldr	r3, [r7, #4]
 80030f2:	2b0c      	cmp	r3, #12
 80030f4:	d131      	bne.n	800315a <LL_RCC_GetUSARTClockFreq+0xe2>
  {
    /* USART2CLK clock frequency */
    switch (LL_RCC_GetUSARTClockSource(USARTxSource))
 80030f6:	6878      	ldr	r0, [r7, #4]
 80030f8:	f7ff ff5e 	bl	8002fb8 <LL_RCC_GetUSARTClockSource>
 80030fc:	4603      	mov	r3, r0
 80030fe:	f1b3 1f0c 	cmp.w	r3, #786444	@ 0xc000c
 8003102:	d015      	beq.n	8003130 <LL_RCC_GetUSARTClockFreq+0xb8>
 8003104:	f1b3 1f0c 	cmp.w	r3, #786444	@ 0xc000c
 8003108:	d81b      	bhi.n	8003142 <LL_RCC_GetUSARTClockFreq+0xca>
 800310a:	4a39      	ldr	r2, [pc, #228]	@ (80031f0 <LL_RCC_GetUSARTClockFreq+0x178>)
 800310c:	4293      	cmp	r3, r2
 800310e:	d003      	beq.n	8003118 <LL_RCC_GetUSARTClockFreq+0xa0>
 8003110:	4a38      	ldr	r2, [pc, #224]	@ (80031f4 <LL_RCC_GetUSARTClockFreq+0x17c>)
 8003112:	4293      	cmp	r3, r2
 8003114:	d004      	beq.n	8003120 <LL_RCC_GetUSARTClockFreq+0xa8>
 8003116:	e014      	b.n	8003142 <LL_RCC_GetUSARTClockFreq+0xca>
    {
      case LL_RCC_USART2_CLKSOURCE_SYSCLK: /* USART2 Clock is System Clock */
        usart_frequency = RCC_GetSystemClockFreq();
 8003118:	f000 f8bc 	bl	8003294 <RCC_GetSystemClockFreq>
 800311c:	60f8      	str	r0, [r7, #12]
        break;
 800311e:	e05c      	b.n	80031da <LL_RCC_GetUSARTClockFreq+0x162>

      case LL_RCC_USART2_CLKSOURCE_HSI:    /* USART2 Clock is HSI Osc. */
        if (LL_RCC_HSI_IsReady() != 0U)
 8003120:	f7ff feea 	bl	8002ef8 <LL_RCC_HSI_IsReady>
 8003124:	4603      	mov	r3, r0
 8003126:	2b00      	cmp	r3, #0
 8003128:	d050      	beq.n	80031cc <LL_RCC_GetUSARTClockFreq+0x154>
        {
          usart_frequency = HSI_VALUE;
 800312a:	4b30      	ldr	r3, [pc, #192]	@ (80031ec <LL_RCC_GetUSARTClockFreq+0x174>)
 800312c:	60fb      	str	r3, [r7, #12]
        }
        break;
 800312e:	e04d      	b.n	80031cc <LL_RCC_GetUSARTClockFreq+0x154>

      case LL_RCC_USART2_CLKSOURCE_LSE:    /* USART2 Clock is LSE Osc. */
        if (LL_RCC_LSE_IsReady() != 0U)
 8003130:	f7ff fef6 	bl	8002f20 <LL_RCC_LSE_IsReady>
 8003134:	4603      	mov	r3, r0
 8003136:	2b00      	cmp	r3, #0
 8003138:	d04a      	beq.n	80031d0 <LL_RCC_GetUSARTClockFreq+0x158>
        {
          usart_frequency = LSE_VALUE;
 800313a:	f44f 4300 	mov.w	r3, #32768	@ 0x8000
 800313e:	60fb      	str	r3, [r7, #12]
        }
        break;
 8003140:	e046      	b.n	80031d0 <LL_RCC_GetUSARTClockFreq+0x158>

      case LL_RCC_USART2_CLKSOURCE_PCLK1:  /* USART2 Clock is PCLK1 */
      default:
        usart_frequency = RCC_GetPCLK1ClockFreq(RCC_GetHCLKClockFreq(RCC_GetSystemClockFreq()));
 8003142:	f000 f8a7 	bl	8003294 <RCC_GetSystemClockFreq>
 8003146:	4603      	mov	r3, r0
 8003148:	4618      	mov	r0, r3
 800314a:	f000 f8c9 	bl	80032e0 <RCC_GetHCLKClockFreq>
 800314e:	4603      	mov	r3, r0
 8003150:	4618      	mov	r0, r3
 8003152:	f000 f8dd 	bl	8003310 <RCC_GetPCLK1ClockFreq>
 8003156:	60f8      	str	r0, [r7, #12]
        break;
 8003158:	e03f      	b.n	80031da <LL_RCC_GetUSARTClockFreq+0x162>
    }
  }
  else
  {
#if defined(RCC_CCIPR_USART3SEL)
    if (USARTxSource == LL_RCC_USART3_CLKSOURCE)
 800315a:	687b      	ldr	r3, [r7, #4]
 800315c:	2b30      	cmp	r3, #48	@ 0x30
 800315e:	d13c      	bne.n	80031da <LL_RCC_GetUSARTClockFreq+0x162>
    {
      /* USART3CLK clock frequency */
      switch (LL_RCC_GetUSARTClockSource(USARTxSource))
 8003160:	6878      	ldr	r0, [r7, #4]
 8003162:	f7ff ff29 	bl	8002fb8 <LL_RCC_GetUSARTClockSource>
 8003166:	4603      	mov	r3, r0
 8003168:	f1b3 1f30 	cmp.w	r3, #3145776	@ 0x300030
 800316c:	d015      	beq.n	800319a <LL_RCC_GetUSARTClockFreq+0x122>
 800316e:	f1b3 1f30 	cmp.w	r3, #3145776	@ 0x300030
 8003172:	d81b      	bhi.n	80031ac <LL_RCC_GetUSARTClockFreq+0x134>
 8003174:	4a20      	ldr	r2, [pc, #128]	@ (80031f8 <LL_RCC_GetUSARTClockFreq+0x180>)
 8003176:	4293      	cmp	r3, r2
 8003178:	d003      	beq.n	8003182 <LL_RCC_GetUSARTClockFreq+0x10a>
 800317a:	4a20      	ldr	r2, [pc, #128]	@ (80031fc <LL_RCC_GetUSARTClockFreq+0x184>)
 800317c:	4293      	cmp	r3, r2
 800317e:	d004      	beq.n	800318a <LL_RCC_GetUSARTClockFreq+0x112>
 8003180:	e014      	b.n	80031ac <LL_RCC_GetUSARTClockFreq+0x134>
      {
        case LL_RCC_USART3_CLKSOURCE_SYSCLK: /* USART3 Clock is System Clock */
          usart_frequency = RCC_GetSystemClockFreq();
 8003182:	f000 f887 	bl	8003294 <RCC_GetSystemClockFreq>
 8003186:	60f8      	str	r0, [r7, #12]
          break;
 8003188:	e027      	b.n	80031da <LL_RCC_GetUSARTClockFreq+0x162>

        case LL_RCC_USART3_CLKSOURCE_HSI:    /* USART3 Clock is HSI Osc. */
          if (LL_RCC_HSI_IsReady() != 0U)
 800318a:	f7ff feb5 	bl	8002ef8 <LL_RCC_HSI_IsReady>
 800318e:	4603      	mov	r3, r0
 8003190:	2b00      	cmp	r3, #0
 8003192:	d01f      	beq.n	80031d4 <LL_RCC_GetUSARTClockFreq+0x15c>
          {
            usart_frequency = HSI_VALUE;
 8003194:	4b15      	ldr	r3, [pc, #84]	@ (80031ec <LL_RCC_GetUSARTClockFreq+0x174>)
 8003196:	60fb      	str	r3, [r7, #12]
          }
          break;
 8003198:	e01c      	b.n	80031d4 <LL_RCC_GetUSARTClockFreq+0x15c>

        case LL_RCC_USART3_CLKSOURCE_LSE:    /* USART3 Clock is LSE Osc. */
          if (LL_RCC_LSE_IsReady() != 0U)
 800319a:	f7ff fec1 	bl	8002f20 <LL_RCC_LSE_IsReady>
 800319e:	4603      	mov	r3, r0
 80031a0:	2b00      	cmp	r3, #0
 80031a2:	d019      	beq.n	80031d8 <LL_RCC_GetUSARTClockFreq+0x160>
          {
            usart_frequency = LSE_VALUE;
 80031a4:	f44f 4300 	mov.w	r3, #32768	@ 0x8000
 80031a8:	60fb      	str	r3, [r7, #12]
          }
          break;
 80031aa:	e015      	b.n	80031d8 <LL_RCC_GetUSARTClockFreq+0x160>

        case LL_RCC_USART3_CLKSOURCE_PCLK1:  /* USART3 Clock is PCLK1 */
        default:
          usart_frequency = RCC_GetPCLK1ClockFreq(RCC_GetHCLKClockFreq(RCC_GetSystemClockFreq()));
 80031ac:	f000 f872 	bl	8003294 <RCC_GetSystemClockFreq>
 80031b0:	4603      	mov	r3, r0
 80031b2:	4618      	mov	r0, r3
 80031b4:	f000 f894 	bl	80032e0 <RCC_GetHCLKClockFreq>
 80031b8:	4603      	mov	r3, r0
 80031ba:	4618      	mov	r0, r3
 80031bc:	f000 f8a8 	bl	8003310 <RCC_GetPCLK1ClockFreq>
 80031c0:	60f8      	str	r0, [r7, #12]
          break;
 80031c2:	e00a      	b.n	80031da <LL_RCC_GetUSARTClockFreq+0x162>
        break;
 80031c4:	bf00      	nop
 80031c6:	e008      	b.n	80031da <LL_RCC_GetUSARTClockFreq+0x162>
        break;
 80031c8:	bf00      	nop
 80031ca:	e006      	b.n	80031da <LL_RCC_GetUSARTClockFreq+0x162>
        break;
 80031cc:	bf00      	nop
 80031ce:	e004      	b.n	80031da <LL_RCC_GetUSARTClockFreq+0x162>
        break;
 80031d0:	bf00      	nop
 80031d2:	e002      	b.n	80031da <LL_RCC_GetUSARTClockFreq+0x162>
          break;
 80031d4:	bf00      	nop
 80031d6:	e000      	b.n	80031da <LL_RCC_GetUSARTClockFreq+0x162>
          break;
 80031d8:	bf00      	nop
      }
    }
#endif /* RCC_CCIPR_USART3SEL */
  }
  return usart_frequency;
 80031da:	68fb      	ldr	r3, [r7, #12]
}
 80031dc:	4618      	mov	r0, r3
 80031de:	3710      	adds	r7, #16
 80031e0:	46bd      	mov	sp, r7
 80031e2:	bd80      	pop	{r7, pc}
 80031e4:	00030001 	.word	0x00030001
 80031e8:	00030002 	.word	0x00030002
 80031ec:	00f42400 	.word	0x00f42400
 80031f0:	000c0004 	.word	0x000c0004
 80031f4:	000c0008 	.word	0x000c0008
 80031f8:	00300010 	.word	0x00300010
 80031fc:	00300020 	.word	0x00300020

08003200 <LL_RCC_GetUARTClockFreq>:
  *         (*) value not defined in all devices.
  * @retval UART clock frequency (in Hz)
  *         - @ref  LL_RCC_PERIPH_FREQUENCY_NO indicates that oscillator (HSI or LSE) is not ready
  */
uint32_t LL_RCC_GetUARTClockFreq(uint32_t UARTxSource)
{
 8003200:	b580      	push	{r7, lr}
 8003202:	b084      	sub	sp, #16
 8003204:	af00      	add	r7, sp, #0
 8003206:	6078      	str	r0, [r7, #4]
  uint32_t uart_frequency = LL_RCC_PERIPH_FREQUENCY_NO;
 8003208:	2300      	movs	r3, #0
 800320a:	60fb      	str	r3, [r7, #12]

  /* Check parameter */
  assert_param(IS_LL_RCC_UART_CLKSOURCE(UARTxSource));

  if (UARTxSource == LL_RCC_UART4_CLKSOURCE)
 800320c:	687b      	ldr	r3, [r7, #4]
 800320e:	2bc0      	cmp	r3, #192	@ 0xc0
 8003210:	d134      	bne.n	800327c <LL_RCC_GetUARTClockFreq+0x7c>
  {
    /* UART4CLK clock frequency */
    switch (LL_RCC_GetUARTClockSource(UARTxSource))
 8003212:	6878      	ldr	r0, [r7, #4]
 8003214:	f7ff fee4 	bl	8002fe0 <LL_RCC_GetUARTClockSource>
 8003218:	4603      	mov	r3, r0
 800321a:	f1b3 1fc0 	cmp.w	r3, #12583104	@ 0xc000c0
 800321e:	d015      	beq.n	800324c <LL_RCC_GetUARTClockFreq+0x4c>
 8003220:	f1b3 1fc0 	cmp.w	r3, #12583104	@ 0xc000c0
 8003224:	d81b      	bhi.n	800325e <LL_RCC_GetUARTClockFreq+0x5e>
 8003226:	4a18      	ldr	r2, [pc, #96]	@ (8003288 <LL_RCC_GetUARTClockFreq+0x88>)
 8003228:	4293      	cmp	r3, r2
 800322a:	d003      	beq.n	8003234 <LL_RCC_GetUARTClockFreq+0x34>
 800322c:	4a17      	ldr	r2, [pc, #92]	@ (800328c <LL_RCC_GetUARTClockFreq+0x8c>)
 800322e:	4293      	cmp	r3, r2
 8003230:	d004      	beq.n	800323c <LL_RCC_GetUARTClockFreq+0x3c>
 8003232:	e014      	b.n	800325e <LL_RCC_GetUARTClockFreq+0x5e>
    {
      case LL_RCC_UART4_CLKSOURCE_SYSCLK: /* UART4 Clock is System Clock */
        uart_frequency = RCC_GetSystemClockFreq();
 8003234:	f000 f82e 	bl	8003294 <RCC_GetSystemClockFreq>
 8003238:	60f8      	str	r0, [r7, #12]
        break;
 800323a:	e01f      	b.n	800327c <LL_RCC_GetUARTClockFreq+0x7c>

      case LL_RCC_UART4_CLKSOURCE_HSI:    /* UART4 Clock is HSI Osc. */
        if (LL_RCC_HSI_IsReady() != 0U)
 800323c:	f7ff fe5c 	bl	8002ef8 <LL_RCC_HSI_IsReady>
 8003240:	4603      	mov	r3, r0
 8003242:	2b00      	cmp	r3, #0
 8003244:	d017      	beq.n	8003276 <LL_RCC_GetUARTClockFreq+0x76>
        {
          uart_frequency = HSI_VALUE;
 8003246:	4b12      	ldr	r3, [pc, #72]	@ (8003290 <LL_RCC_GetUARTClockFreq+0x90>)
 8003248:	60fb      	str	r3, [r7, #12]
        }
        break;
 800324a:	e014      	b.n	8003276 <LL_RCC_GetUARTClockFreq+0x76>

      case LL_RCC_UART4_CLKSOURCE_LSE:    /* UART4 Clock is LSE Osc. */
        if (LL_RCC_LSE_IsReady() != 0U)
 800324c:	f7ff fe68 	bl	8002f20 <LL_RCC_LSE_IsReady>
 8003250:	4603      	mov	r3, r0
 8003252:	2b00      	cmp	r3, #0
 8003254:	d011      	beq.n	800327a <LL_RCC_GetUARTClockFreq+0x7a>
        {
          uart_frequency = LSE_VALUE;
 8003256:	f44f 4300 	mov.w	r3, #32768	@ 0x8000
 800325a:	60fb      	str	r3, [r7, #12]
        }
        break;
 800325c:	e00d      	b.n	800327a <LL_RCC_GetUARTClockFreq+0x7a>

      case LL_RCC_UART4_CLKSOURCE_PCLK1:  /* UART4 Clock is PCLK1 */
      default:
        uart_frequency = RCC_GetPCLK1ClockFreq(RCC_GetHCLKClockFreq(RCC_GetSystemClockFreq()));
 800325e:	f000 f819 	bl	8003294 <RCC_GetSystemClockFreq>
 8003262:	4603      	mov	r3, r0
 8003264:	4618      	mov	r0, r3
 8003266:	f000 f83b 	bl	80032e0 <RCC_GetHCLKClockFreq>
 800326a:	4603      	mov	r3, r0
 800326c:	4618      	mov	r0, r3
 800326e:	f000 f84f 	bl	8003310 <RCC_GetPCLK1ClockFreq>
 8003272:	60f8      	str	r0, [r7, #12]
        break;
 8003274:	e002      	b.n	800327c <LL_RCC_GetUARTClockFreq+0x7c>
        break;
 8003276:	bf00      	nop
 8003278:	e000      	b.n	800327c <LL_RCC_GetUARTClockFreq+0x7c>
        break;
 800327a:	bf00      	nop
        break;
    }
  }
#endif /* RCC_CCIPR_UART5SEL */

  return uart_frequency;
 800327c:	68fb      	ldr	r3, [r7, #12]
}
 800327e:	4618      	mov	r0, r3
 8003280:	3710      	adds	r7, #16
 8003282:	46bd      	mov	sp, r7
 8003284:	bd80      	pop	{r7, pc}
 8003286:	bf00      	nop
 8003288:	00c00040 	.word	0x00c00040
 800328c:	00c00080 	.word	0x00c00080
 8003290:	00f42400 	.word	0x00f42400

08003294 <RCC_GetSystemClockFreq>:
/**
  * @brief  Return SYSTEM clock frequency
  * @retval SYSTEM clock frequency (in Hz)
  */
static uint32_t RCC_GetSystemClockFreq(void)
{
 8003294:	b580      	push	{r7, lr}
 8003296:	b082      	sub	sp, #8
 8003298:	af00      	add	r7, sp, #0
  uint32_t frequency;

  /* Get SYSCLK source -------------------------------------------------------*/
  switch (LL_RCC_GetSysClkSource())
 800329a:	f7ff fe55 	bl	8002f48 <LL_RCC_GetSysClkSource>
 800329e:	4603      	mov	r3, r0
 80032a0:	2b0c      	cmp	r3, #12
 80032a2:	d00c      	beq.n	80032be <RCC_GetSystemClockFreq+0x2a>
 80032a4:	2b0c      	cmp	r3, #12
 80032a6:	d80e      	bhi.n	80032c6 <RCC_GetSystemClockFreq+0x32>
 80032a8:	2b04      	cmp	r3, #4
 80032aa:	d002      	beq.n	80032b2 <RCC_GetSystemClockFreq+0x1e>
 80032ac:	2b08      	cmp	r3, #8
 80032ae:	d003      	beq.n	80032b8 <RCC_GetSystemClockFreq+0x24>
 80032b0:	e009      	b.n	80032c6 <RCC_GetSystemClockFreq+0x32>
  {
    case LL_RCC_SYS_CLKSOURCE_STATUS_HSI:  /* HSI used as system clock  source */
      frequency = HSI_VALUE;
 80032b2:	4b09      	ldr	r3, [pc, #36]	@ (80032d8 <RCC_GetSystemClockFreq+0x44>)
 80032b4:	607b      	str	r3, [r7, #4]
      break;
 80032b6:	e009      	b.n	80032cc <RCC_GetSystemClockFreq+0x38>

    case LL_RCC_SYS_CLKSOURCE_STATUS_HSE:  /* HSE used as system clock  source */
      frequency = HSE_VALUE;
 80032b8:	4b08      	ldr	r3, [pc, #32]	@ (80032dc <RCC_GetSystemClockFreq+0x48>)
 80032ba:	607b      	str	r3, [r7, #4]
      break;
 80032bc:	e006      	b.n	80032cc <RCC_GetSystemClockFreq+0x38>

    case LL_RCC_SYS_CLKSOURCE_STATUS_PLL:  /* PLL used as system clock  source */
      frequency = RCC_PLL_GetFreqDomain_SYS();
 80032be:	f000 f853 	bl	8003368 <RCC_PLL_GetFreqDomain_SYS>
 80032c2:	6078      	str	r0, [r7, #4]
      break;
 80032c4:	e002      	b.n	80032cc <RCC_GetSystemClockFreq+0x38>

    default:
      frequency = HSI_VALUE;
 80032c6:	4b04      	ldr	r3, [pc, #16]	@ (80032d8 <RCC_GetSystemClockFreq+0x44>)
 80032c8:	607b      	str	r3, [r7, #4]
      break;
 80032ca:	bf00      	nop
  }

  return frequency;
 80032cc:	687b      	ldr	r3, [r7, #4]
}
 80032ce:	4618      	mov	r0, r3
 80032d0:	3708      	adds	r7, #8
 80032d2:	46bd      	mov	sp, r7
 80032d4:	bd80      	pop	{r7, pc}
 80032d6:	bf00      	nop
 80032d8:	00f42400 	.word	0x00f42400
 80032dc:	01312d00 	.word	0x01312d00

080032e0 <RCC_GetHCLKClockFreq>:
  * @brief  Return HCLK clock frequency
  * @param  SYSCLK_Frequency SYSCLK clock frequency
  * @retval HCLK clock frequency (in Hz)
  */
static uint32_t RCC_GetHCLKClockFreq(uint32_t SYSCLK_Frequency)
{
 80032e0:	b580      	push	{r7, lr}
 80032e2:	b082      	sub	sp, #8
 80032e4:	af00      	add	r7, sp, #0
 80032e6:	6078      	str	r0, [r7, #4]
  /* HCLK clock frequency */
  return __LL_RCC_CALC_HCLK_FREQ(SYSCLK_Frequency, LL_RCC_GetAHBPrescaler());
 80032e8:	f7ff fe3c 	bl	8002f64 <LL_RCC_GetAHBPrescaler>
 80032ec:	4603      	mov	r3, r0
 80032ee:	091b      	lsrs	r3, r3, #4
 80032f0:	f003 030f 	and.w	r3, r3, #15
 80032f4:	4a05      	ldr	r2, [pc, #20]	@ (800330c <RCC_GetHCLKClockFreq+0x2c>)
 80032f6:	5cd3      	ldrb	r3, [r2, r3]
 80032f8:	f003 031f 	and.w	r3, r3, #31
 80032fc:	687a      	ldr	r2, [r7, #4]
 80032fe:	fa22 f303 	lsr.w	r3, r2, r3
}
 8003302:	4618      	mov	r0, r3
 8003304:	3708      	adds	r7, #8
 8003306:	46bd      	mov	sp, r7
 8003308:	bd80      	pop	{r7, pc}
 800330a:	bf00      	nop
 800330c:	080038dc 	.word	0x080038dc

08003310 <RCC_GetPCLK1ClockFreq>:
  * @brief  Return PCLK1 clock frequency
  * @param  HCLK_Frequency HCLK clock frequency
  * @retval PCLK1 clock frequency (in Hz)
  */
static uint32_t RCC_GetPCLK1ClockFreq(uint32_t HCLK_Frequency)
{
 8003310:	b580      	push	{r7, lr}
 8003312:	b082      	sub	sp, #8
 8003314:	af00      	add	r7, sp, #0
 8003316:	6078      	str	r0, [r7, #4]
  /* PCLK1 clock frequency */
  return __LL_RCC_CALC_PCLK1_FREQ(HCLK_Frequency, LL_RCC_GetAPB1Prescaler());
 8003318:	f7ff fe32 	bl	8002f80 <LL_RCC_GetAPB1Prescaler>
 800331c:	4603      	mov	r3, r0
 800331e:	0a1b      	lsrs	r3, r3, #8
 8003320:	4a05      	ldr	r2, [pc, #20]	@ (8003338 <RCC_GetPCLK1ClockFreq+0x28>)
 8003322:	5cd3      	ldrb	r3, [r2, r3]
 8003324:	f003 031f 	and.w	r3, r3, #31
 8003328:	687a      	ldr	r2, [r7, #4]
 800332a:	fa22 f303 	lsr.w	r3, r2, r3
}
 800332e:	4618      	mov	r0, r3
 8003330:	3708      	adds	r7, #8
 8003332:	46bd      	mov	sp, r7
 8003334:	bd80      	pop	{r7, pc}
 8003336:	bf00      	nop
 8003338:	080038ec 	.word	0x080038ec

0800333c <RCC_GetPCLK2ClockFreq>:
  * @brief  Return PCLK2 clock frequency
  * @param  HCLK_Frequency HCLK clock frequency
  * @retval PCLK2 clock frequency (in Hz)
  */
static uint32_t RCC_GetPCLK2ClockFreq(uint32_t HCLK_Frequency)
{
 800333c:	b580      	push	{r7, lr}
 800333e:	b082      	sub	sp, #8
 8003340:	af00      	add	r7, sp, #0
 8003342:	6078      	str	r0, [r7, #4]
  /* PCLK2 clock frequency */
  return __LL_RCC_CALC_PCLK2_FREQ(HCLK_Frequency, LL_RCC_GetAPB2Prescaler());
 8003344:	f7ff fe2a 	bl	8002f9c <LL_RCC_GetAPB2Prescaler>
 8003348:	4603      	mov	r3, r0
 800334a:	0adb      	lsrs	r3, r3, #11
 800334c:	4a05      	ldr	r2, [pc, #20]	@ (8003364 <RCC_GetPCLK2ClockFreq+0x28>)
 800334e:	5cd3      	ldrb	r3, [r2, r3]
 8003350:	f003 031f 	and.w	r3, r3, #31
 8003354:	687a      	ldr	r2, [r7, #4]
 8003356:	fa22 f303 	lsr.w	r3, r2, r3
}
 800335a:	4618      	mov	r0, r3
 800335c:	3708      	adds	r7, #8
 800335e:	46bd      	mov	sp, r7
 8003360:	bd80      	pop	{r7, pc}
 8003362:	bf00      	nop
 8003364:	080038ec 	.word	0x080038ec

08003368 <RCC_PLL_GetFreqDomain_SYS>:
/**
  * @brief  Return PLL clock frequency used for system domain
  * @retval PLL clock frequency (in Hz)
  */
static uint32_t RCC_PLL_GetFreqDomain_SYS(void)
{
 8003368:	b590      	push	{r4, r7, lr}
 800336a:	b083      	sub	sp, #12
 800336c:	af00      	add	r7, sp, #0
  uint32_t pllinputfreq, pllsource;

  /* PLL_VCO = (HSE_VALUE or HSI_VALUE / PLLM) * PLLN
     SYSCLK = PLL_VCO / PLLR
  */
  pllsource = LL_RCC_PLL_GetMainSource();
 800336e:	f7ff fe4b 	bl	8003008 <LL_RCC_PLL_GetMainSource>
 8003372:	6038      	str	r0, [r7, #0]

  switch (pllsource)
 8003374:	683b      	ldr	r3, [r7, #0]
 8003376:	2b02      	cmp	r3, #2
 8003378:	d003      	beq.n	8003382 <RCC_PLL_GetFreqDomain_SYS+0x1a>
 800337a:	683b      	ldr	r3, [r7, #0]
 800337c:	2b03      	cmp	r3, #3
 800337e:	d003      	beq.n	8003388 <RCC_PLL_GetFreqDomain_SYS+0x20>
 8003380:	e005      	b.n	800338e <RCC_PLL_GetFreqDomain_SYS+0x26>
  {
    case LL_RCC_PLLSOURCE_HSI:  /* HSI used as PLL clock source */
      pllinputfreq = HSI_VALUE;
 8003382:	4b11      	ldr	r3, [pc, #68]	@ (80033c8 <RCC_PLL_GetFreqDomain_SYS+0x60>)
 8003384:	607b      	str	r3, [r7, #4]
      break;
 8003386:	e005      	b.n	8003394 <RCC_PLL_GetFreqDomain_SYS+0x2c>

    case LL_RCC_PLLSOURCE_HSE:  /* HSE used as PLL clock source */
      pllinputfreq = HSE_VALUE;
 8003388:	4b10      	ldr	r3, [pc, #64]	@ (80033cc <RCC_PLL_GetFreqDomain_SYS+0x64>)
 800338a:	607b      	str	r3, [r7, #4]
      break;
 800338c:	e002      	b.n	8003394 <RCC_PLL_GetFreqDomain_SYS+0x2c>

    default:
      pllinputfreq = HSI_VALUE;
 800338e:	4b0e      	ldr	r3, [pc, #56]	@ (80033c8 <RCC_PLL_GetFreqDomain_SYS+0x60>)
 8003390:	607b      	str	r3, [r7, #4]
      break;
 8003392:	bf00      	nop
  }
  return __LL_RCC_CALC_PLLCLK_FREQ(pllinputfreq, LL_RCC_PLL_GetDivider(),
 8003394:	f7ff fe46 	bl	8003024 <LL_RCC_PLL_GetN>
 8003398:	4602      	mov	r2, r0
 800339a:	687b      	ldr	r3, [r7, #4]
 800339c:	fb03 f402 	mul.w	r4, r3, r2
 80033a0:	f7ff fe5c 	bl	800305c <LL_RCC_PLL_GetDivider>
 80033a4:	4603      	mov	r3, r0
 80033a6:	091b      	lsrs	r3, r3, #4
 80033a8:	3301      	adds	r3, #1
 80033aa:	fbb4 f4f3 	udiv	r4, r4, r3
 80033ae:	f7ff fe47 	bl	8003040 <LL_RCC_PLL_GetR>
 80033b2:	4603      	mov	r3, r0
 80033b4:	0e5b      	lsrs	r3, r3, #25
 80033b6:	3301      	adds	r3, #1
 80033b8:	005b      	lsls	r3, r3, #1
 80033ba:	fbb4 f3f3 	udiv	r3, r4, r3
                                   LL_RCC_PLL_GetN(), LL_RCC_PLL_GetR());
}
 80033be:	4618      	mov	r0, r3
 80033c0:	370c      	adds	r7, #12
 80033c2:	46bd      	mov	sp, r7
 80033c4:	bd90      	pop	{r4, r7, pc}
 80033c6:	bf00      	nop
 80033c8:	00f42400 	.word	0x00f42400
 80033cc:	01312d00 	.word	0x01312d00

080033d0 <LL_TIM_SetPrescaler>:
{
 80033d0:	b480      	push	{r7}
 80033d2:	b083      	sub	sp, #12
 80033d4:	af00      	add	r7, sp, #0
 80033d6:	6078      	str	r0, [r7, #4]
 80033d8:	6039      	str	r1, [r7, #0]
  WRITE_REG(TIMx->PSC, Prescaler);
 80033da:	687b      	ldr	r3, [r7, #4]
 80033dc:	683a      	ldr	r2, [r7, #0]
 80033de:	629a      	str	r2, [r3, #40]	@ 0x28
}
 80033e0:	bf00      	nop
 80033e2:	370c      	adds	r7, #12
 80033e4:	46bd      	mov	sp, r7
 80033e6:	f85d 7b04 	ldr.w	r7, [sp], #4
 80033ea:	4770      	bx	lr

080033ec <LL_TIM_SetAutoReload>:
{
 80033ec:	b480      	push	{r7}
 80033ee:	b083      	sub	sp, #12
 80033f0:	af00      	add	r7, sp, #0
 80033f2:	6078      	str	r0, [r7, #4]
 80033f4:	6039      	str	r1, [r7, #0]
  WRITE_REG(TIMx->ARR, AutoReload);
 80033f6:	687b      	ldr	r3, [r7, #4]
 80033f8:	683a      	ldr	r2, [r7, #0]
 80033fa:	62da      	str	r2, [r3, #44]	@ 0x2c
}
 80033fc:	bf00      	nop
 80033fe:	370c      	adds	r7, #12
 8003400:	46bd      	mov	sp, r7
 8003402:	f85d 7b04 	ldr.w	r7, [sp], #4
 8003406:	4770      	bx	lr

08003408 <LL_TIM_SetRepetitionCounter>:
{
 8003408:	b480      	push	{r7}
 800340a:	b083      	sub	sp, #12
 800340c:	af00      	add	r7, sp, #0
 800340e:	6078      	str	r0, [r7, #4]
 8003410:	6039      	str	r1, [r7, #0]
  WRITE_REG(TIMx->RCR, RepetitionCounter);
 8003412:	687b      	ldr	r3, [r7, #4]
 8003414:	683a      	ldr	r2, [r7, #0]
 8003416:	631a      	str	r2, [r3, #48]	@ 0x30
}
 8003418:	bf00      	nop
 800341a:	370c      	adds	r7, #12
 800341c:	46bd      	mov	sp, r7
 800341e:	f85d 7b04 	ldr.w	r7, [sp], #4
 8003422:	4770      	bx	lr

08003424 <LL_TIM_GenerateEvent_UPDATE>:
{
 8003424:	b480      	push	{r7}
 8003426:	b083      	sub	sp, #12
 8003428:	af00      	add	r7, sp, #0
 800342a:	6078      	str	r0, [r7, #4]
  SET_BIT(TIMx->EGR, TIM_EGR_UG);
 800342c:	687b      	ldr	r3, [r7, #4]
 800342e:	695b      	ldr	r3, [r3, #20]
 8003430:	f043 0201 	orr.w	r2, r3, #1
 8003434:	687b      	ldr	r3, [r7, #4]
 8003436:	615a      	str	r2, [r3, #20]
}
 8003438:	bf00      	nop
 800343a:	370c      	adds	r7, #12
 800343c:	46bd      	mov	sp, r7
 800343e:	f85d 7b04 	ldr.w	r7, [sp], #4
 8003442:	4770      	bx	lr

08003444 <LL_TIM_Init>:
  * @retval An ErrorStatus enumeration value:
  *          - SUCCESS: TIMx registers are de-initialized
  *          - ERROR: not applicable
  */
ErrorStatus LL_TIM_Init(TIM_TypeDef *TIMx, const LL_TIM_InitTypeDef *TIM_InitStruct)
{
 8003444:	b580      	push	{r7, lr}
 8003446:	b084      	sub	sp, #16
 8003448:	af00      	add	r7, sp, #0
 800344a:	6078      	str	r0, [r7, #4]
 800344c:	6039      	str	r1, [r7, #0]
  /* Check the parameters */
  assert_param(IS_TIM_INSTANCE(TIMx));
  assert_param(IS_LL_TIM_COUNTERMODE(TIM_InitStruct->CounterMode));
  assert_param(IS_LL_TIM_CLOCKDIVISION(TIM_InitStruct->ClockDivision));

  tmpcr1 = LL_TIM_ReadReg(TIMx, CR1);
 800344e:	687b      	ldr	r3, [r7, #4]
 8003450:	681b      	ldr	r3, [r3, #0]
 8003452:	60fb      	str	r3, [r7, #12]

  if (IS_TIM_COUNTER_MODE_SELECT_INSTANCE(TIMx))
 8003454:	687b      	ldr	r3, [r7, #4]
 8003456:	4a39      	ldr	r2, [pc, #228]	@ (800353c <LL_TIM_Init+0xf8>)
 8003458:	4293      	cmp	r3, r2
 800345a:	d00f      	beq.n	800347c <LL_TIM_Init+0x38>
 800345c:	687b      	ldr	r3, [r7, #4]
 800345e:	f1b3 4f80 	cmp.w	r3, #1073741824	@ 0x40000000
 8003462:	d00b      	beq.n	800347c <LL_TIM_Init+0x38>
 8003464:	687b      	ldr	r3, [r7, #4]
 8003466:	4a36      	ldr	r2, [pc, #216]	@ (8003540 <LL_TIM_Init+0xfc>)
 8003468:	4293      	cmp	r3, r2
 800346a:	d007      	beq.n	800347c <LL_TIM_Init+0x38>
 800346c:	687b      	ldr	r3, [r7, #4]
 800346e:	4a35      	ldr	r2, [pc, #212]	@ (8003544 <LL_TIM_Init+0x100>)
 8003470:	4293      	cmp	r3, r2
 8003472:	d003      	beq.n	800347c <LL_TIM_Init+0x38>
 8003474:	687b      	ldr	r3, [r7, #4]
 8003476:	4a34      	ldr	r2, [pc, #208]	@ (8003548 <LL_TIM_Init+0x104>)
 8003478:	4293      	cmp	r3, r2
 800347a:	d106      	bne.n	800348a <LL_TIM_Init+0x46>
  {
    /* Select the Counter Mode */
    MODIFY_REG(tmpcr1, (TIM_CR1_DIR | TIM_CR1_CMS), TIM_InitStruct->CounterMode);
 800347c:	68fb      	ldr	r3, [r7, #12]
 800347e:	f023 0270 	bic.w	r2, r3, #112	@ 0x70
 8003482:	683b      	ldr	r3, [r7, #0]
 8003484:	685b      	ldr	r3, [r3, #4]
 8003486:	4313      	orrs	r3, r2
 8003488:	60fb      	str	r3, [r7, #12]
  }

  if (IS_TIM_CLOCK_DIVISION_INSTANCE(TIMx))
 800348a:	687b      	ldr	r3, [r7, #4]
 800348c:	4a2b      	ldr	r2, [pc, #172]	@ (800353c <LL_TIM_Init+0xf8>)
 800348e:	4293      	cmp	r3, r2
 8003490:	d01b      	beq.n	80034ca <LL_TIM_Init+0x86>
 8003492:	687b      	ldr	r3, [r7, #4]
 8003494:	f1b3 4f80 	cmp.w	r3, #1073741824	@ 0x40000000
 8003498:	d017      	beq.n	80034ca <LL_TIM_Init+0x86>
 800349a:	687b      	ldr	r3, [r7, #4]
 800349c:	4a28      	ldr	r2, [pc, #160]	@ (8003540 <LL_TIM_Init+0xfc>)
 800349e:	4293      	cmp	r3, r2
 80034a0:	d013      	beq.n	80034ca <LL_TIM_Init+0x86>
 80034a2:	687b      	ldr	r3, [r7, #4]
 80034a4:	4a27      	ldr	r2, [pc, #156]	@ (8003544 <LL_TIM_Init+0x100>)
 80034a6:	4293      	cmp	r3, r2
 80034a8:	d00f      	beq.n	80034ca <LL_TIM_Init+0x86>
 80034aa:	687b      	ldr	r3, [r7, #4]
 80034ac:	4a26      	ldr	r2, [pc, #152]	@ (8003548 <LL_TIM_Init+0x104>)
 80034ae:	4293      	cmp	r3, r2
 80034b0:	d00b      	beq.n	80034ca <LL_TIM_Init+0x86>
 80034b2:	687b      	ldr	r3, [r7, #4]
 80034b4:	4a25      	ldr	r2, [pc, #148]	@ (800354c <LL_TIM_Init+0x108>)
 80034b6:	4293      	cmp	r3, r2
 80034b8:	d007      	beq.n	80034ca <LL_TIM_Init+0x86>
 80034ba:	687b      	ldr	r3, [r7, #4]
 80034bc:	4a24      	ldr	r2, [pc, #144]	@ (8003550 <LL_TIM_Init+0x10c>)
 80034be:	4293      	cmp	r3, r2
 80034c0:	d003      	beq.n	80034ca <LL_TIM_Init+0x86>
 80034c2:	687b      	ldr	r3, [r7, #4]
 80034c4:	4a23      	ldr	r2, [pc, #140]	@ (8003554 <LL_TIM_Init+0x110>)
 80034c6:	4293      	cmp	r3, r2
 80034c8:	d106      	bne.n	80034d8 <LL_TIM_Init+0x94>
  {
    /* Set the clock division */
    MODIFY_REG(tmpcr1, TIM_CR1_CKD, TIM_InitStruct->ClockDivision);
 80034ca:	68fb      	ldr	r3, [r7, #12]
 80034cc:	f423 7240 	bic.w	r2, r3, #768	@ 0x300
 80034d0:	683b      	ldr	r3, [r7, #0]
 80034d2:	68db      	ldr	r3, [r3, #12]
 80034d4:	4313      	orrs	r3, r2
 80034d6:	60fb      	str	r3, [r7, #12]
  }

  /* Write to TIMx CR1 */
  LL_TIM_WriteReg(TIMx, CR1, tmpcr1);
 80034d8:	687b      	ldr	r3, [r7, #4]
 80034da:	68fa      	ldr	r2, [r7, #12]
 80034dc:	601a      	str	r2, [r3, #0]

  /* Set the Autoreload value */
  LL_TIM_SetAutoReload(TIMx, TIM_InitStruct->Autoreload);
 80034de:	683b      	ldr	r3, [r7, #0]
 80034e0:	689b      	ldr	r3, [r3, #8]
 80034e2:	4619      	mov	r1, r3
 80034e4:	6878      	ldr	r0, [r7, #4]
 80034e6:	f7ff ff81 	bl	80033ec <LL_TIM_SetAutoReload>

  /* Set the Prescaler value */
  LL_TIM_SetPrescaler(TIMx, TIM_InitStruct->Prescaler);
 80034ea:	683b      	ldr	r3, [r7, #0]
 80034ec:	881b      	ldrh	r3, [r3, #0]
 80034ee:	4619      	mov	r1, r3
 80034f0:	6878      	ldr	r0, [r7, #4]
 80034f2:	f7ff ff6d 	bl	80033d0 <LL_TIM_SetPrescaler>

  if (IS_TIM_REPETITION_COUNTER_INSTANCE(TIMx))
 80034f6:	687b      	ldr	r3, [r7, #4]
 80034f8:	4a10      	ldr	r2, [pc, #64]	@ (800353c <LL_TIM_Init+0xf8>)
 80034fa:	4293      	cmp	r3, r2
 80034fc:	d00f      	beq.n	800351e <LL_TIM_Init+0xda>
 80034fe:	687b      	ldr	r3, [r7, #4]
 8003500:	4a11      	ldr	r2, [pc, #68]	@ (8003548 <LL_TIM_Init+0x104>)
 8003502:	4293      	cmp	r3, r2
 8003504:	d00b      	beq.n	800351e <LL_TIM_Init+0xda>
 8003506:	687b      	ldr	r3, [r7, #4]
 8003508:	4a10      	ldr	r2, [pc, #64]	@ (800354c <LL_TIM_Init+0x108>)
 800350a:	4293      	cmp	r3, r2
 800350c:	d007      	beq.n	800351e <LL_TIM_Init+0xda>
 800350e:	687b      	ldr	r3, [r7, #4]
 8003510:	4a0f      	ldr	r2, [pc, #60]	@ (8003550 <LL_TIM_Init+0x10c>)
 8003512:	4293      	cmp	r3, r2
 8003514:	d003      	beq.n	800351e <LL_TIM_Init+0xda>
 8003516:	687b      	ldr	r3, [r7, #4]
 8003518:	4a0e      	ldr	r2, [pc, #56]	@ (8003554 <LL_TIM_Init+0x110>)
 800351a:	4293      	cmp	r3, r2
 800351c:	d105      	bne.n	800352a <LL_TIM_Init+0xe6>
  {
    /* Set the Repetition Counter value */
    LL_TIM_SetRepetitionCounter(TIMx, TIM_InitStruct->RepetitionCounter);
 800351e:	683b      	ldr	r3, [r7, #0]
 8003520:	691b      	ldr	r3, [r3, #16]
 8003522:	4619      	mov	r1, r3
 8003524:	6878      	ldr	r0, [r7, #4]
 8003526:	f7ff ff6f 	bl	8003408 <LL_TIM_SetRepetitionCounter>
  }

  /* Generate an update event to reload the Prescaler
     and the repetition counter value (if applicable) immediately */
  LL_TIM_GenerateEvent_UPDATE(TIMx);
 800352a:	6878      	ldr	r0, [r7, #4]
 800352c:	f7ff ff7a 	bl	8003424 <LL_TIM_GenerateEvent_UPDATE>

  return SUCCESS;
 8003530:	2300      	movs	r3, #0
}
 8003532:	4618      	mov	r0, r3
 8003534:	3710      	adds	r7, #16
 8003536:	46bd      	mov	sp, r7
 8003538:	bd80      	pop	{r7, pc}
 800353a:	bf00      	nop
 800353c:	40012c00 	.word	0x40012c00
 8003540:	40000400 	.word	0x40000400
 8003544:	40000800 	.word	0x40000800
 8003548:	40013400 	.word	0x40013400
 800354c:	40014000 	.word	0x40014000
 8003550:	40014400 	.word	0x40014400
 8003554:	40014800 	.word	0x40014800

08003558 <LL_USART_IsEnabled>:
{
 8003558:	b480      	push	{r7}
 800355a:	b083      	sub	sp, #12
 800355c:	af00      	add	r7, sp, #0
 800355e:	6078      	str	r0, [r7, #4]
  return ((READ_BIT(USARTx->CR1, USART_CR1_UE) == (USART_CR1_UE)) ? 1UL : 0UL);
 8003560:	687b      	ldr	r3, [r7, #4]
 8003562:	681b      	ldr	r3, [r3, #0]
 8003564:	f003 0301 	and.w	r3, r3, #1
 8003568:	2b01      	cmp	r3, #1
 800356a:	d101      	bne.n	8003570 <LL_USART_IsEnabled+0x18>
 800356c:	2301      	movs	r3, #1
 800356e:	e000      	b.n	8003572 <LL_USART_IsEnabled+0x1a>
 8003570:	2300      	movs	r3, #0
}
 8003572:	4618      	mov	r0, r3
 8003574:	370c      	adds	r7, #12
 8003576:	46bd      	mov	sp, r7
 8003578:	f85d 7b04 	ldr.w	r7, [sp], #4
 800357c:	4770      	bx	lr

0800357e <LL_USART_SetPrescaler>:
{
 800357e:	b480      	push	{r7}
 8003580:	b083      	sub	sp, #12
 8003582:	af00      	add	r7, sp, #0
 8003584:	6078      	str	r0, [r7, #4]
 8003586:	6039      	str	r1, [r7, #0]
  MODIFY_REG(USARTx->PRESC, USART_PRESC_PRESCALER, (uint16_t)PrescalerValue);
 8003588:	687b      	ldr	r3, [r7, #4]
 800358a:	6adb      	ldr	r3, [r3, #44]	@ 0x2c
 800358c:	f023 030f 	bic.w	r3, r3, #15
 8003590:	683a      	ldr	r2, [r7, #0]
 8003592:	b292      	uxth	r2, r2
 8003594:	431a      	orrs	r2, r3
 8003596:	687b      	ldr	r3, [r7, #4]
 8003598:	62da      	str	r2, [r3, #44]	@ 0x2c
}
 800359a:	bf00      	nop
 800359c:	370c      	adds	r7, #12
 800359e:	46bd      	mov	sp, r7
 80035a0:	f85d 7b04 	ldr.w	r7, [sp], #4
 80035a4:	4770      	bx	lr

080035a6 <LL_USART_SetStopBitsLength>:
{
 80035a6:	b480      	push	{r7}
 80035a8:	b083      	sub	sp, #12
 80035aa:	af00      	add	r7, sp, #0
 80035ac:	6078      	str	r0, [r7, #4]
 80035ae:	6039      	str	r1, [r7, #0]
  MODIFY_REG(USARTx->CR2, USART_CR2_STOP, StopBits);
 80035b0:	687b      	ldr	r3, [r7, #4]
 80035b2:	685b      	ldr	r3, [r3, #4]
 80035b4:	f423 5240 	bic.w	r2, r3, #12288	@ 0x3000
 80035b8:	683b      	ldr	r3, [r7, #0]
 80035ba:	431a      	orrs	r2, r3
 80035bc:	687b      	ldr	r3, [r7, #4]
 80035be:	605a      	str	r2, [r3, #4]
}
 80035c0:	bf00      	nop
 80035c2:	370c      	adds	r7, #12
 80035c4:	46bd      	mov	sp, r7
 80035c6:	f85d 7b04 	ldr.w	r7, [sp], #4
 80035ca:	4770      	bx	lr

080035cc <LL_USART_SetHWFlowCtrl>:
{
 80035cc:	b480      	push	{r7}
 80035ce:	b083      	sub	sp, #12
 80035d0:	af00      	add	r7, sp, #0
 80035d2:	6078      	str	r0, [r7, #4]
 80035d4:	6039      	str	r1, [r7, #0]
  MODIFY_REG(USARTx->CR3, USART_CR3_RTSE | USART_CR3_CTSE, HardwareFlowControl);
 80035d6:	687b      	ldr	r3, [r7, #4]
 80035d8:	689b      	ldr	r3, [r3, #8]
 80035da:	f423 7240 	bic.w	r2, r3, #768	@ 0x300
 80035de:	683b      	ldr	r3, [r7, #0]
 80035e0:	431a      	orrs	r2, r3
 80035e2:	687b      	ldr	r3, [r7, #4]
 80035e4:	609a      	str	r2, [r3, #8]
}
 80035e6:	bf00      	nop
 80035e8:	370c      	adds	r7, #12
 80035ea:	46bd      	mov	sp, r7
 80035ec:	f85d 7b04 	ldr.w	r7, [sp], #4
 80035f0:	4770      	bx	lr
	...

080035f4 <LL_USART_SetBaudRate>:
{
 80035f4:	b480      	push	{r7}
 80035f6:	b087      	sub	sp, #28
 80035f8:	af00      	add	r7, sp, #0
 80035fa:	60f8      	str	r0, [r7, #12]
 80035fc:	60b9      	str	r1, [r7, #8]
 80035fe:	607a      	str	r2, [r7, #4]
 8003600:	603b      	str	r3, [r7, #0]
  if (PrescalerValue > LL_USART_PRESCALER_DIV256)
 8003602:	687b      	ldr	r3, [r7, #4]
 8003604:	2b0b      	cmp	r3, #11
 8003606:	d83c      	bhi.n	8003682 <LL_USART_SetBaudRate+0x8e>
  else if (BaudRate == 0U)
 8003608:	6a3b      	ldr	r3, [r7, #32]
 800360a:	2b00      	cmp	r3, #0
 800360c:	d039      	beq.n	8003682 <LL_USART_SetBaudRate+0x8e>
  else if (OverSampling == LL_USART_OVERSAMPLING_8)
 800360e:	683b      	ldr	r3, [r7, #0]
 8003610:	f5b3 4f00 	cmp.w	r3, #32768	@ 0x8000
 8003614:	d122      	bne.n	800365c <LL_USART_SetBaudRate+0x68>
    usartdiv = (uint16_t)(__LL_USART_DIV_SAMPLING8(PeriphClk, (uint8_t)PrescalerValue, BaudRate));
 8003616:	687b      	ldr	r3, [r7, #4]
 8003618:	b2db      	uxtb	r3, r3
 800361a:	461a      	mov	r2, r3
 800361c:	4b1c      	ldr	r3, [pc, #112]	@ (8003690 <LL_USART_SetBaudRate+0x9c>)
 800361e:	f853 3022 	ldr.w	r3, [r3, r2, lsl #2]
 8003622:	68ba      	ldr	r2, [r7, #8]
 8003624:	fbb2 f3f3 	udiv	r3, r2, r3
 8003628:	005a      	lsls	r2, r3, #1
 800362a:	6a3b      	ldr	r3, [r7, #32]
 800362c:	085b      	lsrs	r3, r3, #1
 800362e:	441a      	add	r2, r3
 8003630:	6a3b      	ldr	r3, [r7, #32]
 8003632:	fbb2 f3f3 	udiv	r3, r2, r3
 8003636:	b29b      	uxth	r3, r3
 8003638:	617b      	str	r3, [r7, #20]
    brrtemp = usartdiv & 0xFFF0U;
 800363a:	697a      	ldr	r2, [r7, #20]
 800363c:	f64f 73f0 	movw	r3, #65520	@ 0xfff0
 8003640:	4013      	ands	r3, r2
 8003642:	613b      	str	r3, [r7, #16]
    brrtemp |= (uint16_t)((usartdiv & (uint16_t)0x000FU) >> 1U);
 8003644:	697b      	ldr	r3, [r7, #20]
 8003646:	085b      	lsrs	r3, r3, #1
 8003648:	b29b      	uxth	r3, r3
 800364a:	f003 0307 	and.w	r3, r3, #7
 800364e:	693a      	ldr	r2, [r7, #16]
 8003650:	4313      	orrs	r3, r2
 8003652:	613b      	str	r3, [r7, #16]
    USARTx->BRR = brrtemp;
 8003654:	68fb      	ldr	r3, [r7, #12]
 8003656:	693a      	ldr	r2, [r7, #16]
 8003658:	60da      	str	r2, [r3, #12]
}
 800365a:	e012      	b.n	8003682 <LL_USART_SetBaudRate+0x8e>
    USARTx->BRR = (uint16_t)(__LL_USART_DIV_SAMPLING16(PeriphClk, (uint8_t)PrescalerValue, BaudRate));
 800365c:	687b      	ldr	r3, [r7, #4]
 800365e:	b2db      	uxtb	r3, r3
 8003660:	461a      	mov	r2, r3
 8003662:	4b0b      	ldr	r3, [pc, #44]	@ (8003690 <LL_USART_SetBaudRate+0x9c>)
 8003664:	f853 3022 	ldr.w	r3, [r3, r2, lsl #2]
 8003668:	68ba      	ldr	r2, [r7, #8]
 800366a:	fbb2 f2f3 	udiv	r2, r2, r3
 800366e:	6a3b      	ldr	r3, [r7, #32]
 8003670:	085b      	lsrs	r3, r3, #1
 8003672:	441a      	add	r2, r3
 8003674:	6a3b      	ldr	r3, [r7, #32]
 8003676:	fbb2 f3f3 	udiv	r3, r2, r3
 800367a:	b29b      	uxth	r3, r3
 800367c:	461a      	mov	r2, r3
 800367e:	68fb      	ldr	r3, [r7, #12]
 8003680:	60da      	str	r2, [r3, #12]
}
 8003682:	bf00      	nop
 8003684:	371c      	adds	r7, #28
 8003686:	46bd      	mov	sp, r7
 8003688:	f85d 7b04 	ldr.w	r7, [sp], #4
 800368c:	4770      	bx	lr
 800368e:	bf00      	nop
 8003690:	080038f4 	.word	0x080038f4

08003694 <LL_USART_Init>:
  * @retval An ErrorStatus enumeration value:
  *          - SUCCESS: USART registers are initialized according to USART_InitStruct content
  *          - ERROR: Problem occurred during USART Registers initialization
  */
ErrorStatus LL_USART_Init(USART_TypeDef *USARTx, const LL_USART_InitTypeDef *USART_InitStruct)
{
 8003694:	b580      	push	{r7, lr}
 8003696:	b086      	sub	sp, #24
 8003698:	af02      	add	r7, sp, #8
 800369a:	6078      	str	r0, [r7, #4]
 800369c:	6039      	str	r1, [r7, #0]
  ErrorStatus status = ERROR;
 800369e:	2301      	movs	r3, #1
 80036a0:	73fb      	strb	r3, [r7, #15]
  uint32_t periphclk = LL_RCC_PERIPH_FREQUENCY_NO;
 80036a2:	2300      	movs	r3, #0
 80036a4:	60bb      	str	r3, [r7, #8]
  assert_param(IS_LL_USART_HWCONTROL(USART_InitStruct->HardwareFlowControl));
  assert_param(IS_LL_USART_OVERSAMPLING(USART_InitStruct->OverSampling));

  /* USART needs to be in disabled state, in order to be able to configure some bits in
     CRx registers */
  if (LL_USART_IsEnabled(USARTx) == 0U)
 80036a6:	6878      	ldr	r0, [r7, #4]
 80036a8:	f7ff ff56 	bl	8003558 <LL_USART_IsEnabled>
 80036ac:	4603      	mov	r3, r0
 80036ae:	2b00      	cmp	r3, #0
 80036b0:	d15b      	bne.n	800376a <LL_USART_Init+0xd6>
     * - DataWidth:          USART_CR1_M bits according to USART_InitStruct->DataWidth value
     * - Parity:             USART_CR1_PCE, USART_CR1_PS bits according to USART_InitStruct->Parity value
     * - TransferDirection:  USART_CR1_TE, USART_CR1_RE bits according to USART_InitStruct->TransferDirection value
     * - Oversampling:       USART_CR1_OVER8 bit according to USART_InitStruct->OverSampling value.
     */
    MODIFY_REG(USARTx->CR1,
 80036b2:	687b      	ldr	r3, [r7, #4]
 80036b4:	681a      	ldr	r2, [r3, #0]
 80036b6:	4b2f      	ldr	r3, [pc, #188]	@ (8003774 <LL_USART_Init+0xe0>)
 80036b8:	4013      	ands	r3, r2
 80036ba:	683a      	ldr	r2, [r7, #0]
 80036bc:	6891      	ldr	r1, [r2, #8]
 80036be:	683a      	ldr	r2, [r7, #0]
 80036c0:	6912      	ldr	r2, [r2, #16]
 80036c2:	4311      	orrs	r1, r2
 80036c4:	683a      	ldr	r2, [r7, #0]
 80036c6:	6952      	ldr	r2, [r2, #20]
 80036c8:	4311      	orrs	r1, r2
 80036ca:	683a      	ldr	r2, [r7, #0]
 80036cc:	69d2      	ldr	r2, [r2, #28]
 80036ce:	430a      	orrs	r2, r1
 80036d0:	431a      	orrs	r2, r3
 80036d2:	687b      	ldr	r3, [r7, #4]
 80036d4:	601a      	str	r2, [r3, #0]
    /*---------------------------- USART CR2 Configuration ---------------------
     * Configure USARTx CR2 (Stop bits) with parameters:
     * - Stop Bits:          USART_CR2_STOP bits according to USART_InitStruct->StopBits value.
     * - CLKEN, CPOL, CPHA and LBCL bits are to be configured using LL_USART_ClockInit().
     */
    LL_USART_SetStopBitsLength(USARTx, USART_InitStruct->StopBits);
 80036d6:	683b      	ldr	r3, [r7, #0]
 80036d8:	68db      	ldr	r3, [r3, #12]
 80036da:	4619      	mov	r1, r3
 80036dc:	6878      	ldr	r0, [r7, #4]
 80036de:	f7ff ff62 	bl	80035a6 <LL_USART_SetStopBitsLength>
    /*---------------------------- USART CR3 Configuration ---------------------
     * Configure USARTx CR3 (Hardware Flow Control) with parameters:
     * - HardwareFlowControl: USART_CR3_RTSE, USART_CR3_CTSE bits according to
     *   USART_InitStruct->HardwareFlowControl value.
     */
    LL_USART_SetHWFlowCtrl(USARTx, USART_InitStruct->HardwareFlowControl);
 80036e2:	683b      	ldr	r3, [r7, #0]
 80036e4:	699b      	ldr	r3, [r3, #24]
 80036e6:	4619      	mov	r1, r3
 80036e8:	6878      	ldr	r0, [r7, #4]
 80036ea:	f7ff ff6f 	bl	80035cc <LL_USART_SetHWFlowCtrl>

    /*---------------------------- USART BRR Configuration ---------------------
     * Retrieve Clock frequency used for USART Peripheral
     */
    if (USARTx == USART1)
 80036ee:	687b      	ldr	r3, [r7, #4]
 80036f0:	4a21      	ldr	r2, [pc, #132]	@ (8003778 <LL_USART_Init+0xe4>)
 80036f2:	4293      	cmp	r3, r2
 80036f4:	d104      	bne.n	8003700 <LL_USART_Init+0x6c>
    {
      periphclk = LL_RCC_GetUSARTClockFreq(LL_RCC_USART1_CLKSOURCE);
 80036f6:	2003      	movs	r0, #3
 80036f8:	f7ff fcbe 	bl	8003078 <LL_RCC_GetUSARTClockFreq>
 80036fc:	60b8      	str	r0, [r7, #8]
 80036fe:	e019      	b.n	8003734 <LL_USART_Init+0xa0>
    }
    else if (USARTx == USART2)
 8003700:	687b      	ldr	r3, [r7, #4]
 8003702:	4a1e      	ldr	r2, [pc, #120]	@ (800377c <LL_USART_Init+0xe8>)
 8003704:	4293      	cmp	r3, r2
 8003706:	d104      	bne.n	8003712 <LL_USART_Init+0x7e>
    {
      periphclk = LL_RCC_GetUSARTClockFreq(LL_RCC_USART2_CLKSOURCE);
 8003708:	200c      	movs	r0, #12
 800370a:	f7ff fcb5 	bl	8003078 <LL_RCC_GetUSARTClockFreq>
 800370e:	60b8      	str	r0, [r7, #8]
 8003710:	e010      	b.n	8003734 <LL_USART_Init+0xa0>
    }
#if defined(USART3)
    else if (USARTx == USART3)
 8003712:	687b      	ldr	r3, [r7, #4]
 8003714:	4a1a      	ldr	r2, [pc, #104]	@ (8003780 <LL_USART_Init+0xec>)
 8003716:	4293      	cmp	r3, r2
 8003718:	d104      	bne.n	8003724 <LL_USART_Init+0x90>
    {
      periphclk = LL_RCC_GetUSARTClockFreq(LL_RCC_USART3_CLKSOURCE);
 800371a:	2030      	movs	r0, #48	@ 0x30
 800371c:	f7ff fcac 	bl	8003078 <LL_RCC_GetUSARTClockFreq>
 8003720:	60b8      	str	r0, [r7, #8]
 8003722:	e007      	b.n	8003734 <LL_USART_Init+0xa0>
    }
#endif /* USART3 */
#if defined(UART4)
    else if (USARTx == UART4)
 8003724:	687b      	ldr	r3, [r7, #4]
 8003726:	4a17      	ldr	r2, [pc, #92]	@ (8003784 <LL_USART_Init+0xf0>)
 8003728:	4293      	cmp	r3, r2
 800372a:	d103      	bne.n	8003734 <LL_USART_Init+0xa0>
    {
      periphclk = LL_RCC_GetUARTClockFreq(LL_RCC_UART4_CLKSOURCE);
 800372c:	20c0      	movs	r0, #192	@ 0xc0
 800372e:	f7ff fd67 	bl	8003200 <LL_RCC_GetUARTClockFreq>
 8003732:	60b8      	str	r0, [r7, #8]
    /* Configure the USART Baud Rate :
       - prescaler value is required
       - valid baud rate value (different from 0) is required
       - Peripheral clock as returned by RCC service, should be valid (different from 0).
    */
    if ((periphclk != LL_RCC_PERIPH_FREQUENCY_NO)
 8003734:	68bb      	ldr	r3, [r7, #8]
 8003736:	2b00      	cmp	r3, #0
 8003738:	d011      	beq.n	800375e <LL_USART_Init+0xca>
        && (USART_InitStruct->BaudRate != 0U))
 800373a:	683b      	ldr	r3, [r7, #0]
 800373c:	685b      	ldr	r3, [r3, #4]
 800373e:	2b00      	cmp	r3, #0
 8003740:	d00d      	beq.n	800375e <LL_USART_Init+0xca>
    {
      status = SUCCESS;
 8003742:	2300      	movs	r3, #0
 8003744:	73fb      	strb	r3, [r7, #15]
      LL_USART_SetBaudRate(USARTx,
                           periphclk,
                           USART_InitStruct->PrescalerValue,
 8003746:	683b      	ldr	r3, [r7, #0]
 8003748:	681a      	ldr	r2, [r3, #0]
                           USART_InitStruct->OverSampling,
 800374a:	683b      	ldr	r3, [r7, #0]
 800374c:	69d9      	ldr	r1, [r3, #28]
                           USART_InitStruct->BaudRate);
 800374e:	683b      	ldr	r3, [r7, #0]
 8003750:	685b      	ldr	r3, [r3, #4]
      LL_USART_SetBaudRate(USARTx,
 8003752:	9300      	str	r3, [sp, #0]
 8003754:	460b      	mov	r3, r1
 8003756:	68b9      	ldr	r1, [r7, #8]
 8003758:	6878      	ldr	r0, [r7, #4]
 800375a:	f7ff ff4b 	bl	80035f4 <LL_USART_SetBaudRate>

    /*---------------------------- USART PRESC Configuration -----------------------
     * Configure USARTx PRESC (Prescaler) with parameters:
     * - PrescalerValue: USART_PRESC_PRESCALER bits according to USART_InitStruct->PrescalerValue value.
     */
    LL_USART_SetPrescaler(USARTx, USART_InitStruct->PrescalerValue);
 800375e:	683b      	ldr	r3, [r7, #0]
 8003760:	681b      	ldr	r3, [r3, #0]
 8003762:	4619      	mov	r1, r3
 8003764:	6878      	ldr	r0, [r7, #4]
 8003766:	f7ff ff0a 	bl	800357e <LL_USART_SetPrescaler>
  }
  /* Endif (=> USART not in Disabled state => return ERROR) */

  return (status);
 800376a:	7bfb      	ldrb	r3, [r7, #15]
}
 800376c:	4618      	mov	r0, r3
 800376e:	3710      	adds	r7, #16
 8003770:	46bd      	mov	sp, r7
 8003772:	bd80      	pop	{r7, pc}
 8003774:	efff69f3 	.word	0xefff69f3
 8003778:	40013800 	.word	0x40013800
 800377c:	40004400 	.word	0x40004400
 8003780:	40004800 	.word	0x40004800
 8003784:	40004c00 	.word	0x40004c00

08003788 <LL_InitTick>:
  *         configuration by calling this function, for a delay use rather osDelay RTOS service.
  * @param  Ticks Frequency of Ticks (Hz)
  * @retval None
  */
__STATIC_INLINE void LL_InitTick(uint32_t HCLKFrequency, uint32_t Ticks)
{
 8003788:	b480      	push	{r7}
 800378a:	b083      	sub	sp, #12
 800378c:	af00      	add	r7, sp, #0
 800378e:	6078      	str	r0, [r7, #4]
 8003790:	6039      	str	r1, [r7, #0]
  /* Configure the SysTick to have interrupt in 1ms time base */
  SysTick->LOAD  = (uint32_t)((HCLKFrequency / Ticks) - 1UL);  /* set reload register */
 8003792:	687a      	ldr	r2, [r7, #4]
 8003794:	683b      	ldr	r3, [r7, #0]
 8003796:	fbb2 f3f3 	udiv	r3, r2, r3
 800379a:	4a07      	ldr	r2, [pc, #28]	@ (80037b8 <LL_InitTick+0x30>)
 800379c:	3b01      	subs	r3, #1
 800379e:	6053      	str	r3, [r2, #4]
  SysTick->VAL   = 0UL;                                       /* Load the SysTick Counter Value */
 80037a0:	4b05      	ldr	r3, [pc, #20]	@ (80037b8 <LL_InitTick+0x30>)
 80037a2:	2200      	movs	r2, #0
 80037a4:	609a      	str	r2, [r3, #8]
  SysTick->CTRL  = SysTick_CTRL_CLKSOURCE_Msk |
 80037a6:	4b04      	ldr	r3, [pc, #16]	@ (80037b8 <LL_InitTick+0x30>)
 80037a8:	2205      	movs	r2, #5
 80037aa:	601a      	str	r2, [r3, #0]
                   SysTick_CTRL_ENABLE_Msk;                   /* Enable the Systick Timer */
}
 80037ac:	bf00      	nop
 80037ae:	370c      	adds	r7, #12
 80037b0:	46bd      	mov	sp, r7
 80037b2:	f85d 7b04 	ldr.w	r7, [sp], #4
 80037b6:	4770      	bx	lr
 80037b8:	e000e010 	.word	0xe000e010

080037bc <LL_Init1msTick>:
  * @param  HCLKFrequency HCLK frequency in Hz
  * @note   HCLK frequency can be calculated thanks to RCC helper macro or function @ref LL_RCC_GetSystemClocksFreq
  * @retval None
  */
void LL_Init1msTick(uint32_t HCLKFrequency)
{
 80037bc:	b580      	push	{r7, lr}
 80037be:	b082      	sub	sp, #8
 80037c0:	af00      	add	r7, sp, #0
 80037c2:	6078      	str	r0, [r7, #4]
  /* Use frequency provided in argument */
  LL_InitTick(HCLKFrequency, 1000U);
 80037c4:	f44f 717a 	mov.w	r1, #1000	@ 0x3e8
 80037c8:	6878      	ldr	r0, [r7, #4]
 80037ca:	f7ff ffdd 	bl	8003788 <LL_InitTick>
}
 80037ce:	bf00      	nop
 80037d0:	3708      	adds	r7, #8
 80037d2:	46bd      	mov	sp, r7
 80037d4:	bd80      	pop	{r7, pc}
	...

080037d8 <LL_mDelay>:
  *         will configure Systick to 1ms
  * @param  Delay specifies the delay time length, in milliseconds.
  * @retval None
  */
void LL_mDelay(uint32_t Delay)
{
 80037d8:	b480      	push	{r7}
 80037da:	b085      	sub	sp, #20
 80037dc:	af00      	add	r7, sp, #0
 80037de:	6078      	str	r0, [r7, #4]
  __IO uint32_t  tmp = SysTick->CTRL;  /* Clear the COUNTFLAG first */
 80037e0:	4b10      	ldr	r3, [pc, #64]	@ (8003824 <LL_mDelay+0x4c>)
 80037e2:	681b      	ldr	r3, [r3, #0]
 80037e4:	60bb      	str	r3, [r7, #8]
  uint32_t tmpDelay; /* MISRAC2012-Rule-17.8 */
  /* Add this code to indicate that local variable is not used */
  ((void)tmp);
 80037e6:	68bb      	ldr	r3, [r7, #8]
  tmpDelay = Delay;
 80037e8:	687b      	ldr	r3, [r7, #4]
 80037ea:	60fb      	str	r3, [r7, #12]
  /* Add a period to guaranty minimum wait */
  if(tmpDelay < LL_MAX_DELAY)
 80037ec:	68fb      	ldr	r3, [r7, #12]
 80037ee:	f1b3 3fff 	cmp.w	r3, #4294967295
 80037f2:	d00c      	beq.n	800380e <LL_mDelay+0x36>
  {
    tmpDelay++;
 80037f4:	68fb      	ldr	r3, [r7, #12]
 80037f6:	3301      	adds	r3, #1
 80037f8:	60fb      	str	r3, [r7, #12]
  }

  while (tmpDelay != 0U)
 80037fa:	e008      	b.n	800380e <LL_mDelay+0x36>
  {
    if((SysTick->CTRL & SysTick_CTRL_COUNTFLAG_Msk) != 0U)
 80037fc:	4b09      	ldr	r3, [pc, #36]	@ (8003824 <LL_mDelay+0x4c>)
 80037fe:	681b      	ldr	r3, [r3, #0]
 8003800:	f403 3380 	and.w	r3, r3, #65536	@ 0x10000
 8003804:	2b00      	cmp	r3, #0
 8003806:	d002      	beq.n	800380e <LL_mDelay+0x36>
    {
      tmpDelay--;
 8003808:	68fb      	ldr	r3, [r7, #12]
 800380a:	3b01      	subs	r3, #1
 800380c:	60fb      	str	r3, [r7, #12]
  while (tmpDelay != 0U)
 800380e:	68fb      	ldr	r3, [r7, #12]
 8003810:	2b00      	cmp	r3, #0
 8003812:	d1f3      	bne.n	80037fc <LL_mDelay+0x24>
    }
  }
}
 8003814:	bf00      	nop
 8003816:	bf00      	nop
 8003818:	3714      	adds	r7, #20
 800381a:	46bd      	mov	sp, r7
 800381c:	f85d 7b04 	ldr.w	r7, [sp], #4
 8003820:	4770      	bx	lr
 8003822:	bf00      	nop
 8003824:	e000e010 	.word	0xe000e010

08003828 <LL_SetSystemCoreClock>:
  * @note   Variable can be calculated also through SystemCoreClockUpdate function.
  * @param  HCLKFrequency HCLK frequency in Hz (can be calculated thanks to RCC helper macro)
  * @retval None
  */
void LL_SetSystemCoreClock(uint32_t HCLKFrequency)
{
 8003828:	b480      	push	{r7}
 800382a:	b083      	sub	sp, #12
 800382c:	af00      	add	r7, sp, #0
 800382e:	6078      	str	r0, [r7, #4]
  /* HCLK clock frequency */
  SystemCoreClock = HCLKFrequency;
 8003830:	4a04      	ldr	r2, [pc, #16]	@ (8003844 <LL_SetSystemCoreClock+0x1c>)
 8003832:	687b      	ldr	r3, [r7, #4]
 8003834:	6013      	str	r3, [r2, #0]
}
 8003836:	bf00      	nop
 8003838:	370c      	adds	r7, #12
 800383a:	46bd      	mov	sp, r7
 800383c:	f85d 7b04 	ldr.w	r7, [sp], #4
 8003840:	4770      	bx	lr
 8003842:	bf00      	nop
 8003844:	20000028 	.word	0x20000028

08003848 <memset>:
 8003848:	4402      	add	r2, r0
 800384a:	4603      	mov	r3, r0
 800384c:	4293      	cmp	r3, r2
 800384e:	d100      	bne.n	8003852 <memset+0xa>
 8003850:	4770      	bx	lr
 8003852:	f803 1b01 	strb.w	r1, [r3], #1
 8003856:	e7f9      	b.n	800384c <memset+0x4>

08003858 <__libc_init_array>:
 8003858:	b570      	push	{r4, r5, r6, lr}
 800385a:	4d0d      	ldr	r5, [pc, #52]	@ (8003890 <__libc_init_array+0x38>)
 800385c:	4c0d      	ldr	r4, [pc, #52]	@ (8003894 <__libc_init_array+0x3c>)
 800385e:	1b64      	subs	r4, r4, r5
 8003860:	10a4      	asrs	r4, r4, #2
 8003862:	2600      	movs	r6, #0
 8003864:	42a6      	cmp	r6, r4
 8003866:	d109      	bne.n	800387c <__libc_init_array+0x24>
 8003868:	4d0b      	ldr	r5, [pc, #44]	@ (8003898 <__libc_init_array+0x40>)
 800386a:	4c0c      	ldr	r4, [pc, #48]	@ (800389c <__libc_init_array+0x44>)
 800386c:	f000 f818 	bl	80038a0 <_init>
 8003870:	1b64      	subs	r4, r4, r5
 8003872:	10a4      	asrs	r4, r4, #2
 8003874:	2600      	movs	r6, #0
 8003876:	42a6      	cmp	r6, r4
 8003878:	d105      	bne.n	8003886 <__libc_init_array+0x2e>
 800387a:	bd70      	pop	{r4, r5, r6, pc}
 800387c:	f855 3b04 	ldr.w	r3, [r5], #4
 8003880:	4798      	blx	r3
 8003882:	3601      	adds	r6, #1
 8003884:	e7ee      	b.n	8003864 <__libc_init_array+0xc>
 8003886:	f855 3b04 	ldr.w	r3, [r5], #4
 800388a:	4798      	blx	r3
 800388c:	3601      	adds	r6, #1
 800388e:	e7f2      	b.n	8003876 <__libc_init_array+0x1e>
 8003890:	0800392c 	.word	0x0800392c
 8003894:	0800392c 	.word	0x0800392c
 8003898:	0800392c 	.word	0x0800392c
 800389c:	08003930 	.word	0x08003930

080038a0 <_init>:
 80038a0:	b5f8      	push	{r3, r4, r5, r6, r7, lr}
 80038a2:	bf00      	nop
 80038a4:	bcf8      	pop	{r3, r4, r5, r6, r7}
 80038a6:	bc08      	pop	{r3}
 80038a8:	469e      	mov	lr, r3
 80038aa:	4770      	bx	lr

080038ac <_fini>:
 80038ac:	b5f8      	push	{r3, r4, r5, r6, r7, lr}
 80038ae:	bf00      	nop
 80038b0:	bcf8      	pop	{r3, r4, r5, r6, r7}
 80038b2:	bc08      	pop	{r3}
 80038b4:	469e      	mov	lr, r3
 80038b6:	4770      	bx	lr
